
bufbomb:     file format elf32-i386


Disassembly of section .init:

08048900 <_init>:
 8048900:	53                   	push   %ebx
 8048901:	83 ec 08             	sub    $0x8,%esp
 8048904:	e8 b7 02 00 00       	call   8048bc0 <__x86.get_pc_thunk.bx>
 8048909:	81 c3 f7 46 00 00    	add    $0x46f7,%ebx
 804890f:	8b 83 fc ff ff ff    	mov    -0x4(%ebx),%eax
 8048915:	85 c0                	test   %eax,%eax
 8048917:	74 05                	je     804891e <_init+0x1e>
 8048919:	e8 32 01 00 00       	call   8048a50 <__gmon_start__@plt>
 804891e:	83 c4 08             	add    $0x8,%esp
 8048921:	5b                   	pop    %ebx
 8048922:	c3                   	ret    

Disassembly of section .plt:

08048930 <strcmp@plt-0x10>:
 8048930:	ff 35 04 d0 04 08    	pushl  0x804d004
 8048936:	ff 25 08 d0 04 08    	jmp    *0x804d008
 804893c:	00 00                	add    %al,(%eax)
	...

08048940 <strcmp@plt>:
 8048940:	ff 25 0c d0 04 08    	jmp    *0x804d00c
 8048946:	68 00 00 00 00       	push   $0x0
 804894b:	e9 e0 ff ff ff       	jmp    8048930 <_init+0x30>

08048950 <read@plt>:
 8048950:	ff 25 10 d0 04 08    	jmp    *0x804d010
 8048956:	68 08 00 00 00       	push   $0x8
 804895b:	e9 d0 ff ff ff       	jmp    8048930 <_init+0x30>

08048960 <srandom@plt>:
 8048960:	ff 25 14 d0 04 08    	jmp    *0x804d014
 8048966:	68 10 00 00 00       	push   $0x10
 804896b:	e9 c0 ff ff ff       	jmp    8048930 <_init+0x30>

08048970 <printf@plt>:
 8048970:	ff 25 18 d0 04 08    	jmp    *0x804d018
 8048976:	68 18 00 00 00       	push   $0x18
 804897b:	e9 b0 ff ff ff       	jmp    8048930 <_init+0x30>

08048980 <strdup@plt>:
 8048980:	ff 25 1c d0 04 08    	jmp    *0x804d01c
 8048986:	68 20 00 00 00       	push   $0x20
 804898b:	e9 a0 ff ff ff       	jmp    8048930 <_init+0x30>

08048990 <memcpy@plt>:
 8048990:	ff 25 20 d0 04 08    	jmp    *0x804d020
 8048996:	68 28 00 00 00       	push   $0x28
 804899b:	e9 90 ff ff ff       	jmp    8048930 <_init+0x30>

080489a0 <bzero@plt>:
 80489a0:	ff 25 24 d0 04 08    	jmp    *0x804d024
 80489a6:	68 30 00 00 00       	push   $0x30
 80489ab:	e9 80 ff ff ff       	jmp    8048930 <_init+0x30>

080489b0 <signal@plt>:
 80489b0:	ff 25 28 d0 04 08    	jmp    *0x804d028
 80489b6:	68 38 00 00 00       	push   $0x38
 80489bb:	e9 70 ff ff ff       	jmp    8048930 <_init+0x30>

080489c0 <alarm@plt>:
 80489c0:	ff 25 2c d0 04 08    	jmp    *0x804d02c
 80489c6:	68 40 00 00 00       	push   $0x40
 80489cb:	e9 60 ff ff ff       	jmp    8048930 <_init+0x30>

080489d0 <_IO_getc@plt>:
 80489d0:	ff 25 30 d0 04 08    	jmp    *0x804d030
 80489d6:	68 48 00 00 00       	push   $0x48
 80489db:	e9 50 ff ff ff       	jmp    8048930 <_init+0x30>

080489e0 <htons@plt>:
 80489e0:	ff 25 34 d0 04 08    	jmp    *0x804d034
 80489e6:	68 50 00 00 00       	push   $0x50
 80489eb:	e9 40 ff ff ff       	jmp    8048930 <_init+0x30>

080489f0 <fwrite@plt>:
 80489f0:	ff 25 38 d0 04 08    	jmp    *0x804d038
 80489f6:	68 58 00 00 00       	push   $0x58
 80489fb:	e9 30 ff ff ff       	jmp    8048930 <_init+0x30>

08048a00 <bcopy@plt>:
 8048a00:	ff 25 3c d0 04 08    	jmp    *0x804d03c
 8048a06:	68 60 00 00 00       	push   $0x60
 8048a0b:	e9 20 ff ff ff       	jmp    8048930 <_init+0x30>

08048a10 <strcpy@plt>:
 8048a10:	ff 25 40 d0 04 08    	jmp    *0x804d040
 8048a16:	68 68 00 00 00       	push   $0x68
 8048a1b:	e9 10 ff ff ff       	jmp    8048930 <_init+0x30>

08048a20 <getpid@plt>:
 8048a20:	ff 25 44 d0 04 08    	jmp    *0x804d044
 8048a26:	68 70 00 00 00       	push   $0x70
 8048a2b:	e9 00 ff ff ff       	jmp    8048930 <_init+0x30>

08048a30 <gethostname@plt>:
 8048a30:	ff 25 48 d0 04 08    	jmp    *0x804d048
 8048a36:	68 78 00 00 00       	push   $0x78
 8048a3b:	e9 f0 fe ff ff       	jmp    8048930 <_init+0x30>

08048a40 <puts@plt>:
 8048a40:	ff 25 4c d0 04 08    	jmp    *0x804d04c
 8048a46:	68 80 00 00 00       	push   $0x80
 8048a4b:	e9 e0 fe ff ff       	jmp    8048930 <_init+0x30>

08048a50 <__gmon_start__@plt>:
 8048a50:	ff 25 50 d0 04 08    	jmp    *0x804d050
 8048a56:	68 88 00 00 00       	push   $0x88
 8048a5b:	e9 d0 fe ff ff       	jmp    8048930 <_init+0x30>

08048a60 <exit@plt>:
 8048a60:	ff 25 54 d0 04 08    	jmp    *0x804d054
 8048a66:	68 90 00 00 00       	push   $0x90
 8048a6b:	e9 c0 fe ff ff       	jmp    8048930 <_init+0x30>

08048a70 <srand@plt>:
 8048a70:	ff 25 58 d0 04 08    	jmp    *0x804d058
 8048a76:	68 98 00 00 00       	push   $0x98
 8048a7b:	e9 b0 fe ff ff       	jmp    8048930 <_init+0x30>

08048a80 <mmap@plt>:
 8048a80:	ff 25 5c d0 04 08    	jmp    *0x804d05c
 8048a86:	68 a0 00 00 00       	push   $0xa0
 8048a8b:	e9 a0 fe ff ff       	jmp    8048930 <_init+0x30>

08048a90 <strlen@plt>:
 8048a90:	ff 25 60 d0 04 08    	jmp    *0x804d060
 8048a96:	68 a8 00 00 00       	push   $0xa8
 8048a9b:	e9 90 fe ff ff       	jmp    8048930 <_init+0x30>

08048aa0 <__libc_start_main@plt>:
 8048aa0:	ff 25 64 d0 04 08    	jmp    *0x804d064
 8048aa6:	68 b0 00 00 00       	push   $0xb0
 8048aab:	e9 80 fe ff ff       	jmp    8048930 <_init+0x30>

08048ab0 <write@plt>:
 8048ab0:	ff 25 68 d0 04 08    	jmp    *0x804d068
 8048ab6:	68 b8 00 00 00       	push   $0xb8
 8048abb:	e9 70 fe ff ff       	jmp    8048930 <_init+0x30>

08048ac0 <getopt@plt>:
 8048ac0:	ff 25 6c d0 04 08    	jmp    *0x804d06c
 8048ac6:	68 c0 00 00 00       	push   $0xc0
 8048acb:	e9 60 fe ff ff       	jmp    8048930 <_init+0x30>

08048ad0 <__isoc99_sscanf@plt>:
 8048ad0:	ff 25 70 d0 04 08    	jmp    *0x804d070
 8048ad6:	68 c8 00 00 00       	push   $0xc8
 8048adb:	e9 50 fe ff ff       	jmp    8048930 <_init+0x30>

08048ae0 <memset@plt>:
 8048ae0:	ff 25 74 d0 04 08    	jmp    *0x804d074
 8048ae6:	68 d0 00 00 00       	push   $0xd0
 8048aeb:	e9 40 fe ff ff       	jmp    8048930 <_init+0x30>

08048af0 <__errno_location@plt>:
 8048af0:	ff 25 78 d0 04 08    	jmp    *0x804d078
 8048af6:	68 d8 00 00 00       	push   $0xd8
 8048afb:	e9 30 fe ff ff       	jmp    8048930 <_init+0x30>

08048b00 <rand@plt>:
 8048b00:	ff 25 7c d0 04 08    	jmp    *0x804d07c
 8048b06:	68 e0 00 00 00       	push   $0xe0
 8048b0b:	e9 20 fe ff ff       	jmp    8048930 <_init+0x30>

08048b10 <munmap@plt>:
 8048b10:	ff 25 80 d0 04 08    	jmp    *0x804d080
 8048b16:	68 e8 00 00 00       	push   $0xe8
 8048b1b:	e9 10 fe ff ff       	jmp    8048930 <_init+0x30>

08048b20 <sprintf@plt>:
 8048b20:	ff 25 84 d0 04 08    	jmp    *0x804d084
 8048b26:	68 f0 00 00 00       	push   $0xf0
 8048b2b:	e9 00 fe ff ff       	jmp    8048930 <_init+0x30>

08048b30 <socket@plt>:
 8048b30:	ff 25 88 d0 04 08    	jmp    *0x804d088
 8048b36:	68 f8 00 00 00       	push   $0xf8
 8048b3b:	e9 f0 fd ff ff       	jmp    8048930 <_init+0x30>

08048b40 <random@plt>:
 8048b40:	ff 25 8c d0 04 08    	jmp    *0x804d08c
 8048b46:	68 00 01 00 00       	push   $0x100
 8048b4b:	e9 e0 fd ff ff       	jmp    8048930 <_init+0x30>

08048b50 <gethostbyname@plt>:
 8048b50:	ff 25 90 d0 04 08    	jmp    *0x804d090
 8048b56:	68 08 01 00 00       	push   $0x108
 8048b5b:	e9 d0 fd ff ff       	jmp    8048930 <_init+0x30>

08048b60 <connect@plt>:
 8048b60:	ff 25 94 d0 04 08    	jmp    *0x804d094
 8048b66:	68 10 01 00 00       	push   $0x110
 8048b6b:	e9 c0 fd ff ff       	jmp    8048930 <_init+0x30>

08048b70 <close@plt>:
 8048b70:	ff 25 98 d0 04 08    	jmp    *0x804d098
 8048b76:	68 18 01 00 00       	push   $0x118
 8048b7b:	e9 b0 fd ff ff       	jmp    8048930 <_init+0x30>

08048b80 <calloc@plt>:
 8048b80:	ff 25 9c d0 04 08    	jmp    *0x804d09c
 8048b86:	68 20 01 00 00       	push   $0x120
 8048b8b:	e9 a0 fd ff ff       	jmp    8048930 <_init+0x30>

Disassembly of section .text:

08048b90 <_start>:
 8048b90:	31 ed                	xor    %ebp,%ebp
 8048b92:	5e                   	pop    %esi
 8048b93:	89 e1                	mov    %esp,%ecx
 8048b95:	83 e4 f0             	and    $0xfffffff0,%esp
 8048b98:	50                   	push   %eax
 8048b99:	54                   	push   %esp
 8048b9a:	52                   	push   %edx
 8048b9b:	68 a0 a3 04 08       	push   $0x804a3a0
 8048ba0:	68 30 a3 04 08       	push   $0x804a330
 8048ba5:	51                   	push   %ecx
 8048ba6:	56                   	push   %esi
 8048ba7:	68 ee 91 04 08       	push   $0x80491ee
 8048bac:	e8 ef fe ff ff       	call   8048aa0 <__libc_start_main@plt>
 8048bb1:	f4                   	hlt    
 8048bb2:	66 90                	xchg   %ax,%ax
 8048bb4:	66 90                	xchg   %ax,%ax
 8048bb6:	66 90                	xchg   %ax,%ax
 8048bb8:	66 90                	xchg   %ax,%ax
 8048bba:	66 90                	xchg   %ax,%ax
 8048bbc:	66 90                	xchg   %ax,%ax
 8048bbe:	66 90                	xchg   %ax,%ax

08048bc0 <__x86.get_pc_thunk.bx>:
 8048bc0:	8b 1c 24             	mov    (%esp),%ebx
 8048bc3:	c3                   	ret    
 8048bc4:	66 90                	xchg   %ax,%ax
 8048bc6:	66 90                	xchg   %ax,%ax
 8048bc8:	66 90                	xchg   %ax,%ax
 8048bca:	66 90                	xchg   %ax,%ax
 8048bcc:	66 90                	xchg   %ax,%ax
 8048bce:	66 90                	xchg   %ax,%ax

08048bd0 <deregister_tm_clones>:
 8048bd0:	b8 cf d0 04 08       	mov    $0x804d0cf,%eax
 8048bd5:	2d cc d0 04 08       	sub    $0x804d0cc,%eax
 8048bda:	83 f8 06             	cmp    $0x6,%eax
 8048bdd:	77 01                	ja     8048be0 <deregister_tm_clones+0x10>
 8048bdf:	c3                   	ret    
 8048be0:	b8 00 00 00 00       	mov    $0x0,%eax
 8048be5:	85 c0                	test   %eax,%eax
 8048be7:	74 f6                	je     8048bdf <deregister_tm_clones+0xf>
 8048be9:	55                   	push   %ebp
 8048bea:	89 e5                	mov    %esp,%ebp
 8048bec:	83 ec 18             	sub    $0x18,%esp
 8048bef:	c7 04 24 cc d0 04 08 	movl   $0x804d0cc,(%esp)
 8048bf6:	ff d0                	call   *%eax
 8048bf8:	c9                   	leave  
 8048bf9:	c3                   	ret    
 8048bfa:	8d b6 00 00 00 00    	lea    0x0(%esi),%esi

08048c00 <register_tm_clones>:
 8048c00:	b8 cc d0 04 08       	mov    $0x804d0cc,%eax
 8048c05:	2d cc d0 04 08       	sub    $0x804d0cc,%eax
 8048c0a:	c1 f8 02             	sar    $0x2,%eax
 8048c0d:	89 c2                	mov    %eax,%edx
 8048c0f:	c1 ea 1f             	shr    $0x1f,%edx
 8048c12:	01 d0                	add    %edx,%eax
 8048c14:	d1 f8                	sar    %eax
 8048c16:	75 01                	jne    8048c19 <register_tm_clones+0x19>
 8048c18:	c3                   	ret    
 8048c19:	ba 00 00 00 00       	mov    $0x0,%edx
 8048c1e:	85 d2                	test   %edx,%edx
 8048c20:	74 f6                	je     8048c18 <register_tm_clones+0x18>
 8048c22:	55                   	push   %ebp
 8048c23:	89 e5                	mov    %esp,%ebp
 8048c25:	83 ec 18             	sub    $0x18,%esp
 8048c28:	89 44 24 04          	mov    %eax,0x4(%esp)
 8048c2c:	c7 04 24 cc d0 04 08 	movl   $0x804d0cc,(%esp)
 8048c33:	ff d2                	call   *%edx
 8048c35:	c9                   	leave  
 8048c36:	c3                   	ret    
 8048c37:	89 f6                	mov    %esi,%esi
 8048c39:	8d bc 27 00 00 00 00 	lea    0x0(%edi,%eiz,1),%edi

08048c40 <__do_global_dtors_aux>:
 8048c40:	80 3d ec d0 04 08 00 	cmpb   $0x0,0x804d0ec
 8048c47:	75 13                	jne    8048c5c <__do_global_dtors_aux+0x1c>
 8048c49:	55                   	push   %ebp
 8048c4a:	89 e5                	mov    %esp,%ebp
 8048c4c:	83 ec 08             	sub    $0x8,%esp
 8048c4f:	e8 7c ff ff ff       	call   8048bd0 <deregister_tm_clones>
 8048c54:	c6 05 ec d0 04 08 01 	movb   $0x1,0x804d0ec
 8048c5b:	c9                   	leave  
 8048c5c:	f3 c3                	repz ret 
 8048c5e:	66 90                	xchg   %ax,%ax

08048c60 <frame_dummy>:
 8048c60:	a1 08 cf 04 08       	mov    0x804cf08,%eax
 8048c65:	85 c0                	test   %eax,%eax
 8048c67:	74 1f                	je     8048c88 <frame_dummy+0x28>
 8048c69:	b8 00 00 00 00       	mov    $0x0,%eax
 8048c6e:	85 c0                	test   %eax,%eax
 8048c70:	74 16                	je     8048c88 <frame_dummy+0x28>
 8048c72:	55                   	push   %ebp
 8048c73:	89 e5                	mov    %esp,%ebp
 8048c75:	83 ec 18             	sub    $0x18,%esp
 8048c78:	c7 04 24 08 cf 04 08 	movl   $0x804cf08,(%esp)
 8048c7f:	ff d0                	call   *%eax
 8048c81:	c9                   	leave  
 8048c82:	e9 79 ff ff ff       	jmp    8048c00 <register_tm_clones>
 8048c87:	90                   	nop
 8048c88:	e9 73 ff ff ff       	jmp    8048c00 <register_tm_clones>
 8048c8d:	66 90                	xchg   %ax,%ax
 8048c8f:	90                   	nop

08048c90 <smoke>:
 8048c90:	55                   	push   %ebp
 8048c91:	89 e5                	mov    %esp,%ebp
 8048c93:	83 ec 18             	sub    $0x18,%esp
 8048c96:	c7 04 24 c0 a3 04 08 	movl   $0x804a3c0,(%esp)
 8048c9d:	e8 9e fd ff ff       	call   8048a40 <puts@plt>
 8048ca2:	c7 04 24 00 00 00 00 	movl   $0x0,(%esp)
 8048ca9:	e8 11 08 00 00       	call   80494bf <validate>
 8048cae:	c7 04 24 00 00 00 00 	movl   $0x0,(%esp)
 8048cb5:	e8 a6 fd ff ff       	call   8048a60 <exit@plt>

08048cba <fizz>:
 8048cba:	55                   	push   %ebp
 8048cbb:	89 e5                	mov    %esp,%ebp
 8048cbd:	83 ec 18             	sub    $0x18,%esp
 8048cc0:	8b 55 08             	mov    0x8(%ebp),%edx
 8048cc3:	a1 00 d1 04 08       	mov    0x804d100,%eax
 8048cc8:	39 c2                	cmp    %eax,%edx
 8048cca:	75 21                	jne    8048ced <fizz+0x33>
 8048ccc:	8b 45 08             	mov    0x8(%ebp),%eax
 8048ccf:	89 44 24 04          	mov    %eax,0x4(%esp)
 8048cd3:	c7 04 24 db a3 04 08 	movl   $0x804a3db,(%esp)
 8048cda:	e8 91 fc ff ff       	call   8048970 <printf@plt>
 8048cdf:	c7 04 24 01 00 00 00 	movl   $0x1,(%esp)
 8048ce6:	e8 d4 07 00 00       	call   80494bf <validate>
 8048ceb:	eb 13                	jmp    8048d00 <fizz+0x46>
 8048ced:	8b 45 08             	mov    0x8(%ebp),%eax
 8048cf0:	89 44 24 04          	mov    %eax,0x4(%esp)
 8048cf4:	c7 04 24 fc a3 04 08 	movl   $0x804a3fc,(%esp)
 8048cfb:	e8 70 fc ff ff       	call   8048970 <printf@plt>
 8048d00:	c7 04 24 00 00 00 00 	movl   $0x0,(%esp)
 8048d07:	e8 54 fd ff ff       	call   8048a60 <exit@plt>

08048d0c <bang>:
 8048d0c:	55                   	push   %ebp
 8048d0d:	89 e5                	mov    %esp,%ebp
 8048d0f:	83 ec 18             	sub    $0x18,%esp
 8048d12:	a1 08 d1 04 08       	mov    0x804d108,%eax
 8048d17:	89 c2                	mov    %eax,%edx
 8048d19:	a1 00 d1 04 08       	mov    0x804d100,%eax
 8048d1e:	39 c2                	cmp    %eax,%edx
 8048d20:	75 23                	jne    8048d45 <bang+0x39>
 8048d22:	a1 08 d1 04 08       	mov    0x804d108,%eax
 8048d27:	89 44 24 04          	mov    %eax,0x4(%esp)
 8048d2b:	c7 04 24 1c a4 04 08 	movl   $0x804a41c,(%esp)
 8048d32:	e8 39 fc ff ff       	call   8048970 <printf@plt>
 8048d37:	c7 04 24 02 00 00 00 	movl   $0x2,(%esp)
 8048d3e:	e8 7c 07 00 00       	call   80494bf <validate>
 8048d43:	eb 15                	jmp    8048d5a <bang+0x4e>
 8048d45:	a1 08 d1 04 08       	mov    0x804d108,%eax
 8048d4a:	89 44 24 04          	mov    %eax,0x4(%esp)
 8048d4e:	c7 04 24 41 a4 04 08 	movl   $0x804a441,(%esp)
 8048d55:	e8 16 fc ff ff       	call   8048970 <printf@plt>
 8048d5a:	c7 04 24 00 00 00 00 	movl   $0x0,(%esp)
 8048d61:	e8 fa fc ff ff       	call   8048a60 <exit@plt>

08048d66 <test>:
 8048d66:	55                   	push   %ebp
 8048d67:	89 e5                	mov    %esp,%ebp
 8048d69:	83 ec 28             	sub    $0x28,%esp
 8048d6c:	e8 63 04 00 00       	call   80491d4 <uniqueval>
 8048d71:	89 45 f0             	mov    %eax,-0x10(%ebp)
 8048d74:	e8 5f 00 00 00       	call   8048dd8 <getbuf>
 8048d79:	89 45 f4             	mov    %eax,-0xc(%ebp)
 8048d7c:	e8 53 04 00 00       	call   80491d4 <uniqueval>
 8048d81:	8b 55 f0             	mov    -0x10(%ebp),%edx
 8048d84:	39 d0                	cmp    %edx,%eax
 8048d86:	74 0e                	je     8048d96 <test+0x30>
 8048d88:	c7 04 24 60 a4 04 08 	movl   $0x804a460,(%esp)
 8048d8f:	e8 ac fc ff ff       	call   8048a40 <puts@plt>
 8048d94:	eb 40                	jmp    8048dd6 <test+0x70>
 8048d96:	8b 55 f4             	mov    -0xc(%ebp),%edx
 8048d99:	a1 00 d1 04 08       	mov    0x804d100,%eax
 8048d9e:	39 c2                	cmp    %eax,%edx
 8048da0:	75 21                	jne    8048dc3 <test+0x5d>
 8048da2:	8b 45 f4             	mov    -0xc(%ebp),%eax
 8048da5:	89 44 24 04          	mov    %eax,0x4(%esp)
 8048da9:	c7 04 24 89 a4 04 08 	movl   $0x804a489,(%esp)
 8048db0:	e8 bb fb ff ff       	call   8048970 <printf@plt>
 8048db5:	c7 04 24 03 00 00 00 	movl   $0x3,(%esp)
 8048dbc:	e8 fe 06 00 00       	call   80494bf <validate>
 8048dc1:	eb 13                	jmp    8048dd6 <test+0x70>
 8048dc3:	8b 45 f4             	mov    -0xc(%ebp),%eax
 8048dc6:	89 44 24 04          	mov    %eax,0x4(%esp)
 8048dca:	c7 04 24 a6 a4 04 08 	movl   $0x804a4a6,(%esp)
 8048dd1:	e8 9a fb ff ff       	call   8048970 <printf@plt>
 8048dd6:	c9                   	leave  
 8048dd7:	c3                   	ret    

08048dd8 <getbuf>:
 8048dd8:	55                   	push   %ebp
 8048dd9:	89 e5                	mov    %esp,%ebp
 8048ddb:	83 ec 38             	sub    $0x38,%esp
 8048dde:	8d 45 d8             	lea    -0x28(%ebp),%eax
 8048de1:	89 04 24             	mov    %eax,(%esp)
 8048de4:	e8 32 01 00 00       	call   8048f1b <Gets>
 8048de9:	b8 01 00 00 00       	mov    $0x1,%eax
 8048dee:	c9                   	leave  
 8048def:	c3                   	ret    

08048df0 <getbufn>:
 8048df0:	55                   	push   %ebp
 8048df1:	89 e5                	mov    %esp,%ebp
 8048df3:	81 ec 18 02 00 00    	sub    $0x218,%esp
 8048df9:	8d 85 f8 fd ff ff    	lea    -0x208(%ebp),%eax
 8048dff:	89 04 24             	mov    %eax,(%esp)
 8048e02:	e8 14 01 00 00       	call   8048f1b <Gets>
 8048e07:	b8 01 00 00 00       	mov    $0x1,%eax
 8048e0c:	c9                   	leave  
 8048e0d:	c3                   	ret    

08048e0e <testn>:
 8048e0e:	55                   	push   %ebp
 8048e0f:	89 e5                	mov    %esp,%ebp
 8048e11:	83 ec 28             	sub    $0x28,%esp
 8048e14:	c7 45 f0 ef be ad de 	movl   $0xdeadbeef,-0x10(%ebp)
 8048e1b:	e8 d0 ff ff ff       	call   8048df0 <getbufn>
 8048e20:	89 45 f4             	mov    %eax,-0xc(%ebp)
 8048e23:	8b 45 f0             	mov    -0x10(%ebp),%eax
 8048e26:	3d ef be ad de       	cmp    $0xdeadbeef,%eax
 8048e2b:	74 0e                	je     8048e3b <testn+0x2d>
 8048e2d:	c7 04 24 60 a4 04 08 	movl   $0x804a460,(%esp)
 8048e34:	e8 07 fc ff ff       	call   8048a40 <puts@plt>
 8048e39:	eb 40                	jmp    8048e7b <testn+0x6d>
 8048e3b:	8b 55 f4             	mov    -0xc(%ebp),%edx
 8048e3e:	a1 00 d1 04 08       	mov    0x804d100,%eax
 8048e43:	39 c2                	cmp    %eax,%edx
 8048e45:	75 21                	jne    8048e68 <testn+0x5a>
 8048e47:	8b 45 f4             	mov    -0xc(%ebp),%eax
 8048e4a:	89 44 24 04          	mov    %eax,0x4(%esp)
 8048e4e:	c7 04 24 c4 a4 04 08 	movl   $0x804a4c4,(%esp)
 8048e55:	e8 16 fb ff ff       	call   8048970 <printf@plt>
 8048e5a:	c7 04 24 04 00 00 00 	movl   $0x4,(%esp)
 8048e61:	e8 59 06 00 00       	call   80494bf <validate>
 8048e66:	eb 13                	jmp    8048e7b <testn+0x6d>
 8048e68:	8b 45 f4             	mov    -0xc(%ebp),%eax
 8048e6b:	89 44 24 04          	mov    %eax,0x4(%esp)
 8048e6f:	c7 04 24 e4 a4 04 08 	movl   $0x804a4e4,(%esp)
 8048e76:	e8 f5 fa ff ff       	call   8048970 <printf@plt>
 8048e7b:	c9                   	leave  
 8048e7c:	c3                   	ret    

08048e7d <save_char>:
 8048e7d:	55                   	push   %ebp
 8048e7e:	89 e5                	mov    %esp,%ebp
 8048e80:	83 ec 04             	sub    $0x4,%esp
 8048e83:	8b 45 08             	mov    0x8(%ebp),%eax
 8048e86:	88 45 fc             	mov    %al,-0x4(%ebp)
 8048e89:	a1 0c d1 04 08       	mov    0x804d10c,%eax
 8048e8e:	3d ff 03 00 00       	cmp    $0x3ff,%eax
 8048e93:	7f 6c                	jg     8048f01 <save_char+0x84>
 8048e95:	8b 15 0c d1 04 08    	mov    0x804d10c,%edx
 8048e9b:	89 d0                	mov    %edx,%eax
 8048e9d:	01 c0                	add    %eax,%eax
 8048e9f:	01 c2                	add    %eax,%edx
 8048ea1:	0f b6 45 fc          	movzbl -0x4(%ebp),%eax
 8048ea5:	c0 f8 04             	sar    $0x4,%al
 8048ea8:	0f be c0             	movsbl %al,%eax
 8048eab:	83 e0 0f             	and    $0xf,%eax
 8048eae:	0f b6 80 a8 d0 04 08 	movzbl 0x804d0a8(%eax),%eax
 8048eb5:	88 82 40 e1 04 08    	mov    %al,0x804e140(%edx)
 8048ebb:	8b 15 0c d1 04 08    	mov    0x804d10c,%edx
 8048ec1:	89 d0                	mov    %edx,%eax
 8048ec3:	01 c0                	add    %eax,%eax
 8048ec5:	01 d0                	add    %edx,%eax
 8048ec7:	8d 50 01             	lea    0x1(%eax),%edx
 8048eca:	0f be 45 fc          	movsbl -0x4(%ebp),%eax
 8048ece:	83 e0 0f             	and    $0xf,%eax
 8048ed1:	0f b6 80 a8 d0 04 08 	movzbl 0x804d0a8(%eax),%eax
 8048ed8:	88 82 40 e1 04 08    	mov    %al,0x804e140(%edx)
 8048ede:	8b 15 0c d1 04 08    	mov    0x804d10c,%edx
 8048ee4:	89 d0                	mov    %edx,%eax
 8048ee6:	01 c0                	add    %eax,%eax
 8048ee8:	01 d0                	add    %edx,%eax
 8048eea:	83 c0 02             	add    $0x2,%eax
 8048eed:	c6 80 40 e1 04 08 20 	movb   $0x20,0x804e140(%eax)
 8048ef4:	a1 0c d1 04 08       	mov    0x804d10c,%eax
 8048ef9:	83 c0 01             	add    $0x1,%eax
 8048efc:	a3 0c d1 04 08       	mov    %eax,0x804d10c
 8048f01:	c9                   	leave  
 8048f02:	c3                   	ret    

08048f03 <save_term>:
 8048f03:	55                   	push   %ebp
 8048f04:	89 e5                	mov    %esp,%ebp
 8048f06:	8b 15 0c d1 04 08    	mov    0x804d10c,%edx
 8048f0c:	89 d0                	mov    %edx,%eax
 8048f0e:	01 c0                	add    %eax,%eax
 8048f10:	01 d0                	add    %edx,%eax
 8048f12:	c6 80 40 e1 04 08 00 	movb   $0x0,0x804e140(%eax)
 8048f19:	5d                   	pop    %ebp
 8048f1a:	c3                   	ret    

08048f1b <Gets>:
 8048f1b:	55                   	push   %ebp
 8048f1c:	89 e5                	mov    %esp,%ebp
 8048f1e:	83 ec 28             	sub    $0x28,%esp
 8048f21:	8b 45 08             	mov    0x8(%ebp),%eax
 8048f24:	89 45 f4             	mov    %eax,-0xc(%ebp)
 8048f27:	c7 05 0c d1 04 08 00 	movl   $0x0,0x804d10c
 8048f2e:	00 00 00 
 8048f31:	eb 1c                	jmp    8048f4f <Gets+0x34>
 8048f33:	8b 45 f4             	mov    -0xc(%ebp),%eax
 8048f36:	8d 50 01             	lea    0x1(%eax),%edx
 8048f39:	89 55 f4             	mov    %edx,-0xc(%ebp)
 8048f3c:	8b 55 f0             	mov    -0x10(%ebp),%edx
 8048f3f:	88 10                	mov    %dl,(%eax)
 8048f41:	8b 45 f0             	mov    -0x10(%ebp),%eax
 8048f44:	0f be c0             	movsbl %al,%eax
 8048f47:	89 04 24             	mov    %eax,(%esp)
 8048f4a:	e8 2e ff ff ff       	call   8048e7d <save_char>
 8048f4f:	a1 fc d0 04 08       	mov    0x804d0fc,%eax
 8048f54:	89 04 24             	mov    %eax,(%esp)
 8048f57:	e8 74 fa ff ff       	call   80489d0 <_IO_getc@plt>
 8048f5c:	89 45 f0             	mov    %eax,-0x10(%ebp)
 8048f5f:	83 7d f0 ff          	cmpl   $0xffffffff,-0x10(%ebp)
 8048f63:	74 06                	je     8048f6b <Gets+0x50>
 8048f65:	83 7d f0 0a          	cmpl   $0xa,-0x10(%ebp)
 8048f69:	75 c8                	jne    8048f33 <Gets+0x18>
 8048f6b:	8b 45 f4             	mov    -0xc(%ebp),%eax
 8048f6e:	8d 50 01             	lea    0x1(%eax),%edx
 8048f71:	89 55 f4             	mov    %edx,-0xc(%ebp)
 8048f74:	c6 00 00             	movb   $0x0,(%eax)
 8048f77:	e8 87 ff ff ff       	call   8048f03 <save_term>
 8048f7c:	8b 45 08             	mov    0x8(%ebp),%eax
 8048f7f:	c9                   	leave  
 8048f80:	c3                   	ret    

08048f81 <usage>:
 8048f81:	55                   	push   %ebp
 8048f82:	89 e5                	mov    %esp,%ebp
 8048f84:	83 ec 18             	sub    $0x18,%esp
 8048f87:	8b 45 08             	mov    0x8(%ebp),%eax
 8048f8a:	89 44 24 04          	mov    %eax,0x4(%esp)
 8048f8e:	c7 04 24 00 a5 04 08 	movl   $0x804a500,(%esp)
 8048f95:	e8 d6 f9 ff ff       	call   8048970 <printf@plt>
 8048f9a:	c7 04 24 1e a5 04 08 	movl   $0x804a51e,(%esp)
 8048fa1:	e8 9a fa ff ff       	call   8048a40 <puts@plt>
 8048fa6:	c7 04 24 34 a5 04 08 	movl   $0x804a534,(%esp)
 8048fad:	e8 8e fa ff ff       	call   8048a40 <puts@plt>
 8048fb2:	c7 04 24 50 a5 04 08 	movl   $0x804a550,(%esp)
 8048fb9:	e8 82 fa ff ff       	call   8048a40 <puts@plt>
 8048fbe:	c7 04 24 8c a5 04 08 	movl   $0x804a58c,(%esp)
 8048fc5:	e8 76 fa ff ff       	call   8048a40 <puts@plt>
 8048fca:	c7 04 24 00 00 00 00 	movl   $0x0,(%esp)
 8048fd1:	e8 8a fa ff ff       	call   8048a60 <exit@plt>

08048fd6 <bushandler>:
 8048fd6:	55                   	push   %ebp
 8048fd7:	89 e5                	mov    %esp,%ebp
 8048fd9:	83 ec 18             	sub    $0x18,%esp
 8048fdc:	c7 04 24 b4 a5 04 08 	movl   $0x804a5b4,(%esp)
 8048fe3:	e8 58 fa ff ff       	call   8048a40 <puts@plt>
 8048fe8:	c7 04 24 d4 a5 04 08 	movl   $0x804a5d4,(%esp)
 8048fef:	e8 4c fa ff ff       	call   8048a40 <puts@plt>
 8048ff4:	c7 04 24 00 00 00 00 	movl   $0x0,(%esp)
 8048ffb:	e8 60 fa ff ff       	call   8048a60 <exit@plt>

08049000 <seghandler>:
 8049000:	55                   	push   %ebp
 8049001:	89 e5                	mov    %esp,%ebp
 8049003:	83 ec 18             	sub    $0x18,%esp
 8049006:	c7 04 24 ec a5 04 08 	movl   $0x804a5ec,(%esp)
 804900d:	e8 2e fa ff ff       	call   8048a40 <puts@plt>
 8049012:	c7 04 24 d4 a5 04 08 	movl   $0x804a5d4,(%esp)
 8049019:	e8 22 fa ff ff       	call   8048a40 <puts@plt>
 804901e:	c7 04 24 00 00 00 00 	movl   $0x0,(%esp)
 8049025:	e8 36 fa ff ff       	call   8048a60 <exit@plt>

0804902a <illegalhandler>:
 804902a:	55                   	push   %ebp
 804902b:	89 e5                	mov    %esp,%ebp
 804902d:	83 ec 18             	sub    $0x18,%esp
 8049030:	c7 04 24 14 a6 04 08 	movl   $0x804a614,(%esp)
 8049037:	e8 04 fa ff ff       	call   8048a40 <puts@plt>
 804903c:	c7 04 24 d4 a5 04 08 	movl   $0x804a5d4,(%esp)
 8049043:	e8 f8 f9 ff ff       	call   8048a40 <puts@plt>
 8049048:	c7 04 24 00 00 00 00 	movl   $0x0,(%esp)
 804904f:	e8 0c fa ff ff       	call   8048a60 <exit@plt>

08049054 <launch>:
 8049054:	55                   	push   %ebp
 8049055:	89 e5                	mov    %esp,%ebp
 8049057:	83 ec 68             	sub    $0x68,%esp
 804905a:	c7 45 f4 00 00 00 00 	movl   $0x0,-0xc(%ebp)
 8049061:	8d 45 b0             	lea    -0x50(%ebp),%eax
 8049064:	25 f0 3f 00 00       	and    $0x3ff0,%eax
 8049069:	89 45 f4             	mov    %eax,-0xc(%ebp)
 804906c:	8b 55 0c             	mov    0xc(%ebp),%edx
 804906f:	8b 45 f4             	mov    -0xc(%ebp),%eax
 8049072:	01 d0                	add    %edx,%eax
 8049074:	8d 50 0f             	lea    0xf(%eax),%edx
 8049077:	b8 10 00 00 00       	mov    $0x10,%eax
 804907c:	83 e8 01             	sub    $0x1,%eax
 804907f:	01 d0                	add    %edx,%eax
 8049081:	b9 10 00 00 00       	mov    $0x10,%ecx
 8049086:	ba 00 00 00 00       	mov    $0x0,%edx
 804908b:	f7 f1                	div    %ecx
 804908d:	6b c0 10             	imul   $0x10,%eax,%eax
 8049090:	29 c4                	sub    %eax,%esp
 8049092:	8d 44 24 0c          	lea    0xc(%esp),%eax
 8049096:	83 c0 0f             	add    $0xf,%eax
 8049099:	c1 e8 04             	shr    $0x4,%eax
 804909c:	c1 e0 04             	shl    $0x4,%eax
 804909f:	89 45 f0             	mov    %eax,-0x10(%ebp)
 80490a2:	8b 45 f4             	mov    -0xc(%ebp),%eax
 80490a5:	89 44 24 08          	mov    %eax,0x8(%esp)
 80490a9:	c7 44 24 04 f4 00 00 	movl   $0xf4,0x4(%esp)
 80490b0:	00 
 80490b1:	8b 45 f0             	mov    -0x10(%ebp),%eax
 80490b4:	89 04 24             	mov    %eax,(%esp)
 80490b7:	e8 24 fa ff ff       	call   8048ae0 <memset@plt>
 80490bc:	c7 04 24 3f a6 04 08 	movl   $0x804a63f,(%esp)
 80490c3:	e8 a8 f8 ff ff       	call   8048970 <printf@plt>
 80490c8:	83 7d 08 00          	cmpl   $0x0,0x8(%ebp)
 80490cc:	74 07                	je     80490d5 <launch+0x81>
 80490ce:	e8 3b fd ff ff       	call   8048e0e <testn>
 80490d3:	eb 05                	jmp    80490da <launch+0x86>
 80490d5:	e8 8c fc ff ff       	call   8048d66 <test>
 80490da:	a1 04 d1 04 08       	mov    0x804d104,%eax
 80490df:	85 c0                	test   %eax,%eax
 80490e1:	75 16                	jne    80490f9 <launch+0xa5>
 80490e3:	c7 04 24 d4 a5 04 08 	movl   $0x804a5d4,(%esp)
 80490ea:	e8 51 f9 ff ff       	call   8048a40 <puts@plt>
 80490ef:	c7 05 04 d1 04 08 00 	movl   $0x0,0x804d104
 80490f6:	00 00 00 
 80490f9:	c9                   	leave  
 80490fa:	c3                   	ret    

080490fb <launcher>:
 80490fb:	55                   	push   %ebp
 80490fc:	89 e5                	mov    %esp,%ebp
 80490fe:	83 ec 38             	sub    $0x38,%esp
 8049101:	8b 45 08             	mov    0x8(%ebp),%eax
 8049104:	a3 10 d1 04 08       	mov    %eax,0x804d110
 8049109:	8b 45 0c             	mov    0xc(%ebp),%eax
 804910c:	a3 14 d1 04 08       	mov    %eax,0x804d114
 8049111:	c7 44 24 14 00 00 00 	movl   $0x0,0x14(%esp)
 8049118:	00 
 8049119:	c7 44 24 10 00 00 00 	movl   $0x0,0x10(%esp)
 8049120:	00 
 8049121:	c7 44 24 0c 32 01 00 	movl   $0x132,0xc(%esp)
 8049128:	00 
 8049129:	c7 44 24 08 07 00 00 	movl   $0x7,0x8(%esp)
 8049130:	00 
 8049131:	c7 44 24 04 00 00 10 	movl   $0x100000,0x4(%esp)
 8049138:	00 
 8049139:	c7 04 24 00 60 58 55 	movl   $0x55586000,(%esp)
 8049140:	e8 3b f9 ff ff       	call   8048a80 <mmap@plt>
 8049145:	89 45 f4             	mov    %eax,-0xc(%ebp)
 8049148:	81 7d f4 00 60 58 55 	cmpl   $0x55586000,-0xc(%ebp)
 804914f:	74 31                	je     8049182 <launcher+0x87>
 8049151:	a1 e0 d0 04 08       	mov    0x804d0e0,%eax
 8049156:	89 44 24 0c          	mov    %eax,0xc(%esp)
 804915a:	c7 44 24 08 47 00 00 	movl   $0x47,0x8(%esp)
 8049161:	00 
 8049162:	c7 44 24 04 01 00 00 	movl   $0x1,0x4(%esp)
 8049169:	00 
 804916a:	c7 04 24 4c a6 04 08 	movl   $0x804a64c,(%esp)
 8049171:	e8 7a f8 ff ff       	call   80489f0 <fwrite@plt>
 8049176:	c7 04 24 01 00 00 00 	movl   $0x1,(%esp)
 804917d:	e8 de f8 ff ff       	call   8048a60 <exit@plt>
 8049182:	8b 45 f4             	mov    -0xc(%ebp),%eax
 8049185:	05 f8 ff 0f 00       	add    $0xffff8,%eax
 804918a:	a3 20 e1 04 08       	mov    %eax,0x804e120
 804918f:	8b 15 20 e1 04 08    	mov    0x804e120,%edx
 8049195:	89 e0                	mov    %esp,%eax
 8049197:	89 d4                	mov    %edx,%esp
 8049199:	89 c2                	mov    %eax,%edx
 804919b:	89 15 18 d1 04 08    	mov    %edx,0x804d118
 80491a1:	8b 15 14 d1 04 08    	mov    0x804d114,%edx
 80491a7:	a1 10 d1 04 08       	mov    0x804d110,%eax
 80491ac:	89 54 24 04          	mov    %edx,0x4(%esp)
 80491b0:	89 04 24             	mov    %eax,(%esp)
 80491b3:	e8 9c fe ff ff       	call   8049054 <launch>
 80491b8:	a1 18 d1 04 08       	mov    0x804d118,%eax
 80491bd:	89 c4                	mov    %eax,%esp
 80491bf:	c7 44 24 04 00 00 10 	movl   $0x100000,0x4(%esp)
 80491c6:	00 
 80491c7:	8b 45 f4             	mov    -0xc(%ebp),%eax
 80491ca:	89 04 24             	mov    %eax,(%esp)
 80491cd:	e8 3e f9 ff ff       	call   8048b10 <munmap@plt>
 80491d2:	c9                   	leave  
 80491d3:	c3                   	ret    

080491d4 <uniqueval>:
 80491d4:	55                   	push   %ebp
 80491d5:	89 e5                	mov    %esp,%ebp
 80491d7:	83 ec 18             	sub    $0x18,%esp
 80491da:	e8 41 f8 ff ff       	call   8048a20 <getpid@plt>
 80491df:	89 04 24             	mov    %eax,(%esp)
 80491e2:	e8 79 f7 ff ff       	call   8048960 <srandom@plt>
 80491e7:	e8 54 f9 ff ff       	call   8048b40 <random@plt>
 80491ec:	c9                   	leave  
 80491ed:	c3                   	ret    

080491ee <main>:
 80491ee:	55                   	push   %ebp
 80491ef:	89 e5                	mov    %esp,%ebp
 80491f1:	53                   	push   %ebx
 80491f2:	83 e4 f0             	and    $0xfffffff0,%esp
 80491f5:	83 ec 30             	sub    $0x30,%esp
 80491f8:	c7 44 24 20 00 00 00 	movl   $0x0,0x20(%esp)
 80491ff:	00 
 8049200:	c7 44 24 2c 00 00 00 	movl   $0x0,0x2c(%esp)
 8049207:	00 
 8049208:	c7 44 24 24 01 00 00 	movl   $0x1,0x24(%esp)
 804920f:	00 
 8049210:	c7 44 24 04 00 90 04 	movl   $0x8049000,0x4(%esp)
 8049217:	08 
 8049218:	c7 04 24 0b 00 00 00 	movl   $0xb,(%esp)
 804921f:	e8 8c f7 ff ff       	call   80489b0 <signal@plt>
 8049224:	c7 44 24 04 d6 8f 04 	movl   $0x8048fd6,0x4(%esp)
 804922b:	08 
 804922c:	c7 04 24 07 00 00 00 	movl   $0x7,(%esp)
 8049233:	e8 78 f7 ff ff       	call   80489b0 <signal@plt>
 8049238:	c7 44 24 04 2a 90 04 	movl   $0x804902a,0x4(%esp)
 804923f:	08 
 8049240:	c7 04 24 04 00 00 00 	movl   $0x4,(%esp)
 8049247:	e8 64 f7 ff ff       	call   80489b0 <signal@plt>
 804924c:	a1 e4 d0 04 08       	mov    0x804d0e4,%eax
 8049251:	a3 fc d0 04 08       	mov    %eax,0x804d0fc
 8049256:	e9 82 00 00 00       	jmp    80492dd <main+0xef>
 804925b:	0f be 44 24 1f       	movsbl 0x1f(%esp),%eax
 8049260:	83 e8 67             	sub    $0x67,%eax
 8049263:	83 f8 0e             	cmp    $0xe,%eax
 8049266:	77 68                	ja     80492d0 <main+0xe2>
 8049268:	8b 04 85 e4 a6 04 08 	mov    0x804a6e4(,%eax,4),%eax
 804926f:	ff e0                	jmp    *%eax
 8049271:	8b 45 0c             	mov    0xc(%ebp),%eax
 8049274:	8b 00                	mov    (%eax),%eax
 8049276:	89 04 24             	mov    %eax,(%esp)
 8049279:	e8 03 fd ff ff       	call   8048f81 <usage>
 804927e:	eb 5d                	jmp    80492dd <main+0xef>
 8049280:	c7 44 24 2c 01 00 00 	movl   $0x1,0x2c(%esp)
 8049287:	00 
 8049288:	c7 44 24 24 05 00 00 	movl   $0x5,0x24(%esp)
 804928f:	00 
 8049290:	eb 4b                	jmp    80492dd <main+0xef>
 8049292:	a1 e8 d0 04 08       	mov    0x804d0e8,%eax
 8049297:	89 04 24             	mov    %eax,(%esp)
 804929a:	e8 e1 f6 ff ff       	call   8048980 <strdup@plt>
 804929f:	a3 f0 d0 04 08       	mov    %eax,0x804d0f0
 80492a4:	a1 f0 d0 04 08       	mov    0x804d0f0,%eax
 80492a9:	89 04 24             	mov    %eax,(%esp)
 80492ac:	e8 47 10 00 00       	call   804a2f8 <gencookie>
 80492b1:	a3 00 d1 04 08       	mov    %eax,0x804d100
 80492b6:	eb 25                	jmp    80492dd <main+0xef>
 80492b8:	c7 05 f4 d0 04 08 01 	movl   $0x1,0x804d0f4
 80492bf:	00 00 00 
 80492c2:	eb 19                	jmp    80492dd <main+0xef>
 80492c4:	c7 05 f8 d0 04 08 01 	movl   $0x1,0x804d0f8
 80492cb:	00 00 00 
 80492ce:	eb 0d                	jmp    80492dd <main+0xef>
 80492d0:	8b 45 0c             	mov    0xc(%ebp),%eax
 80492d3:	8b 00                	mov    (%eax),%eax
 80492d5:	89 04 24             	mov    %eax,(%esp)
 80492d8:	e8 a4 fc ff ff       	call   8048f81 <usage>
 80492dd:	c7 44 24 08 94 a6 04 	movl   $0x804a694,0x8(%esp)
 80492e4:	08 
 80492e5:	8b 45 0c             	mov    0xc(%ebp),%eax
 80492e8:	89 44 24 04          	mov    %eax,0x4(%esp)
 80492ec:	8b 45 08             	mov    0x8(%ebp),%eax
 80492ef:	89 04 24             	mov    %eax,(%esp)
 80492f2:	e8 c9 f7 ff ff       	call   8048ac0 <getopt@plt>
 80492f7:	88 44 24 1f          	mov    %al,0x1f(%esp)
 80492fb:	80 7c 24 1f ff       	cmpb   $0xff,0x1f(%esp)
 8049300:	0f 85 55 ff ff ff    	jne    804925b <main+0x6d>
 8049306:	a1 f0 d0 04 08       	mov    0x804d0f0,%eax
 804930b:	85 c0                	test   %eax,%eax
 804930d:	75 22                	jne    8049331 <main+0x143>
 804930f:	8b 45 0c             	mov    0xc(%ebp),%eax
 8049312:	8b 00                	mov    (%eax),%eax
 8049314:	89 44 24 04          	mov    %eax,0x4(%esp)
 8049318:	c7 04 24 9c a6 04 08 	movl   $0x804a69c,(%esp)
 804931f:	e8 4c f6 ff ff       	call   8048970 <printf@plt>
 8049324:	8b 45 0c             	mov    0xc(%ebp),%eax
 8049327:	8b 00                	mov    (%eax),%eax
 8049329:	89 04 24             	mov    %eax,(%esp)
 804932c:	e8 50 fc ff ff       	call   8048f81 <usage>
 8049331:	e8 fa 00 00 00       	call   8049430 <initialize_bomb>
 8049336:	a1 f0 d0 04 08       	mov    0x804d0f0,%eax
 804933b:	89 44 24 04          	mov    %eax,0x4(%esp)
 804933f:	c7 04 24 c8 a6 04 08 	movl   $0x804a6c8,(%esp)
 8049346:	e8 25 f6 ff ff       	call   8048970 <printf@plt>
 804934b:	a1 00 d1 04 08       	mov    0x804d100,%eax
 8049350:	89 44 24 04          	mov    %eax,0x4(%esp)
 8049354:	c7 04 24 d4 a6 04 08 	movl   $0x804a6d4,(%esp)
 804935b:	e8 10 f6 ff ff       	call   8048970 <printf@plt>
 8049360:	a1 00 d1 04 08       	mov    0x804d100,%eax
 8049365:	89 04 24             	mov    %eax,(%esp)
 8049368:	e8 f3 f5 ff ff       	call   8048960 <srandom@plt>
 804936d:	e8 ce f7 ff ff       	call   8048b40 <random@plt>
 8049372:	25 f0 0f 00 00       	and    $0xff0,%eax
 8049377:	05 00 01 00 00       	add    $0x100,%eax
 804937c:	89 44 24 20          	mov    %eax,0x20(%esp)
 8049380:	8b 44 24 24          	mov    0x24(%esp),%eax
 8049384:	c7 44 24 04 04 00 00 	movl   $0x4,0x4(%esp)
 804938b:	00 
 804938c:	89 04 24             	mov    %eax,(%esp)
 804938f:	e8 ec f7 ff ff       	call   8048b80 <calloc@plt>
 8049394:	89 44 24 18          	mov    %eax,0x18(%esp)
 8049398:	8b 44 24 18          	mov    0x18(%esp),%eax
 804939c:	c7 00 00 00 00 00    	movl   $0x0,(%eax)
 80493a2:	c7 44 24 28 01 00 00 	movl   $0x1,0x28(%esp)
 80493a9:	00 
 80493aa:	eb 2c                	jmp    80493d8 <main+0x1ea>
 80493ac:	8b 44 24 28          	mov    0x28(%esp),%eax
 80493b0:	8d 14 85 00 00 00 00 	lea    0x0(,%eax,4),%edx
 80493b7:	8b 44 24 18          	mov    0x18(%esp),%eax
 80493bb:	8d 1c 02             	lea    (%edx,%eax,1),%ebx
 80493be:	e8 7d f7 ff ff       	call   8048b40 <random@plt>
 80493c3:	25 f0 00 00 00       	and    $0xf0,%eax
 80493c8:	89 c2                	mov    %eax,%edx
 80493ca:	b8 80 00 00 00       	mov    $0x80,%eax
 80493cf:	29 d0                	sub    %edx,%eax
 80493d1:	89 03                	mov    %eax,(%ebx)
 80493d3:	83 44 24 28 01       	addl   $0x1,0x28(%esp)
 80493d8:	8b 44 24 28          	mov    0x28(%esp),%eax
 80493dc:	3b 44 24 24          	cmp    0x24(%esp),%eax
 80493e0:	7c ca                	jl     80493ac <main+0x1be>
 80493e2:	c7 44 24 28 00 00 00 	movl   $0x0,0x28(%esp)
 80493e9:	00 
 80493ea:	eb 2e                	jmp    804941a <main+0x22c>
 80493ec:	8b 44 24 28          	mov    0x28(%esp),%eax
 80493f0:	8d 14 85 00 00 00 00 	lea    0x0(,%eax,4),%edx
 80493f7:	8b 44 24 18          	mov    0x18(%esp),%eax
 80493fb:	01 d0                	add    %edx,%eax
 80493fd:	8b 10                	mov    (%eax),%edx
 80493ff:	8b 44 24 20          	mov    0x20(%esp),%eax
 8049403:	01 d0                	add    %edx,%eax
 8049405:	89 44 24 04          	mov    %eax,0x4(%esp)
 8049409:	8b 44 24 2c          	mov    0x2c(%esp),%eax
 804940d:	89 04 24             	mov    %eax,(%esp)
 8049410:	e8 e6 fc ff ff       	call   80490fb <launcher>
 8049415:	83 44 24 28 01       	addl   $0x1,0x28(%esp)
 804941a:	8b 44 24 28          	mov    0x28(%esp),%eax
 804941e:	3b 44 24 24          	cmp    0x24(%esp),%eax
 8049422:	7c c8                	jl     80493ec <main+0x1fe>
 8049424:	b8 00 00 00 00       	mov    $0x0,%eax
 8049429:	8b 5d fc             	mov    -0x4(%ebp),%ebx
 804942c:	c9                   	leave  
 804942d:	c3                   	ret    
 804942e:	66 90                	xchg   %ax,%ax

08049430 <initialize_bomb>:
 8049430:	55                   	push   %ebp
 8049431:	89 e5                	mov    %esp,%ebp
 8049433:	81 ec 18 24 00 00    	sub    $0x2418,%esp
 8049439:	a1 f8 d0 04 08       	mov    0x804d0f8,%eax
 804943e:	85 c0                	test   %eax,%eax
 8049440:	74 0c                	je     804944e <initialize_bomb+0x1e>
 8049442:	c7 04 24 ff ff ff ff 	movl   $0xffffffff,(%esp)
 8049449:	e8 88 0b 00 00       	call   8049fd6 <init_timeout>
 804944e:	a1 f4 d0 04 08       	mov    0x804d0f4,%eax
 8049453:	85 c0                	test   %eax,%eax
 8049455:	74 66                	je     80494bd <initialize_bomb+0x8d>
 8049457:	c7 44 24 04 00 04 00 	movl   $0x400,0x4(%esp)
 804945e:	00 
 804945f:	8d 85 f8 fb ff ff    	lea    -0x408(%ebp),%eax
 8049465:	89 04 24             	mov    %eax,(%esp)
 8049468:	e8 c3 f5 ff ff       	call   8048a30 <gethostname@plt>
 804946d:	85 c0                	test   %eax,%eax
 804946f:	74 18                	je     8049489 <initialize_bomb+0x59>
 8049471:	c7 04 24 20 a7 04 08 	movl   $0x804a720,(%esp)
 8049478:	e8 c3 f5 ff ff       	call   8048a40 <puts@plt>
 804947d:	c7 04 24 08 00 00 00 	movl   $0x8,(%esp)
 8049484:	e8 d7 f5 ff ff       	call   8048a60 <exit@plt>
 8049489:	8d 85 f8 db ff ff    	lea    -0x2408(%ebp),%eax
 804948f:	89 04 24             	mov    %eax,(%esp)
 8049492:	e8 7b 0b 00 00       	call   804a012 <init_driver>
 8049497:	85 c0                	test   %eax,%eax
 8049499:	79 22                	jns    80494bd <initialize_bomb+0x8d>
 804949b:	8d 85 f8 db ff ff    	lea    -0x2408(%ebp),%eax
 80494a1:	89 44 24 04          	mov    %eax,0x4(%esp)
 80494a5:	c7 04 24 58 a7 04 08 	movl   $0x804a758,(%esp)
 80494ac:	e8 bf f4 ff ff       	call   8048970 <printf@plt>
 80494b1:	c7 04 24 08 00 00 00 	movl   $0x8,(%esp)
 80494b8:	e8 a3 f5 ff ff       	call   8048a60 <exit@plt>
 80494bd:	c9                   	leave  
 80494be:	c3                   	ret    

080494bf <validate>:
 80494bf:	55                   	push   %ebp
 80494c0:	89 e5                	mov    %esp,%ebp
 80494c2:	81 ec 38 40 00 00    	sub    $0x4038,%esp
 80494c8:	a1 f0 d0 04 08       	mov    0x804d0f0,%eax
 80494cd:	85 c0                	test   %eax,%eax
 80494cf:	75 11                	jne    80494e2 <validate+0x23>
 80494d1:	c7 04 24 70 a7 04 08 	movl   $0x804a770,(%esp)
 80494d8:	e8 63 f5 ff ff       	call   8048a40 <puts@plt>
 80494dd:	e9 2d 01 00 00       	jmp    804960f <validate+0x150>
 80494e2:	83 7d 08 00          	cmpl   $0x0,0x8(%ebp)
 80494e6:	78 06                	js     80494ee <validate+0x2f>
 80494e8:	83 7d 08 04          	cmpl   $0x4,0x8(%ebp)
 80494ec:	7e 11                	jle    80494ff <validate+0x40>
 80494ee:	c7 04 24 9c a7 04 08 	movl   $0x804a79c,(%esp)
 80494f5:	e8 46 f5 ff ff       	call   8048a40 <puts@plt>
 80494fa:	e9 10 01 00 00       	jmp    804960f <validate+0x150>
 80494ff:	c7 05 04 d1 04 08 01 	movl   $0x1,0x804d104
 8049506:	00 00 00 
 8049509:	8b 45 08             	mov    0x8(%ebp),%eax
 804950c:	8b 04 85 b8 d0 04 08 	mov    0x804d0b8(,%eax,4),%eax
 8049513:	8d 50 ff             	lea    -0x1(%eax),%edx
 8049516:	8b 45 08             	mov    0x8(%ebp),%eax
 8049519:	89 14 85 b8 d0 04 08 	mov    %edx,0x804d0b8(,%eax,4)
 8049520:	8b 45 08             	mov    0x8(%ebp),%eax
 8049523:	8b 04 85 b8 d0 04 08 	mov    0x804d0b8(,%eax,4),%eax
 804952a:	85 c0                	test   %eax,%eax
 804952c:	7e 11                	jle    804953f <validate+0x80>
 804952e:	c7 04 24 c2 a7 04 08 	movl   $0x804a7c2,(%esp)
 8049535:	e8 06 f5 ff ff       	call   8048a40 <puts@plt>
 804953a:	e9 d0 00 00 00       	jmp    804960f <validate+0x150>
 804953f:	c7 04 24 cd a7 04 08 	movl   $0x804a7cd,(%esp)
 8049546:	e8 f5 f4 ff ff       	call   8048a40 <puts@plt>
 804954b:	a1 f4 d0 04 08       	mov    0x804d0f4,%eax
 8049550:	85 c0                	test   %eax,%eax
 8049552:	0f 84 ab 00 00 00    	je     8049603 <validate+0x144>
 8049558:	c7 04 24 40 e1 04 08 	movl   $0x804e140,(%esp)
 804955f:	e8 2c f5 ff ff       	call   8048a90 <strlen@plt>
 8049564:	83 c0 20             	add    $0x20,%eax
 8049567:	3d 00 20 00 00       	cmp    $0x2000,%eax
 804956c:	76 11                	jbe    804957f <validate+0xc0>
 804956e:	c7 04 24 d4 a7 04 08 	movl   $0x804a7d4,(%esp)
 8049575:	e8 c6 f4 ff ff       	call   8048a40 <puts@plt>
 804957a:	e9 90 00 00 00       	jmp    804960f <validate+0x150>
 804957f:	a1 00 d1 04 08       	mov    0x804d100,%eax
 8049584:	c7 44 24 10 40 e1 04 	movl   $0x804e140,0x10(%esp)
 804958b:	08 
 804958c:	89 44 24 0c          	mov    %eax,0xc(%esp)
 8049590:	8b 45 08             	mov    0x8(%ebp),%eax
 8049593:	89 44 24 08          	mov    %eax,0x8(%esp)
 8049597:	c7 44 24 04 0b a8 04 	movl   $0x804a80b,0x4(%esp)
 804959e:	08 
 804959f:	8d 85 f4 df ff ff    	lea    -0x200c(%ebp),%eax
 80495a5:	89 04 24             	mov    %eax,(%esp)
 80495a8:	e8 73 f5 ff ff       	call   8048b20 <sprintf@plt>
 80495ad:	a1 f0 d0 04 08       	mov    0x804d0f0,%eax
 80495b2:	8d 95 f4 bf ff ff    	lea    -0x400c(%ebp),%edx
 80495b8:	89 54 24 0c          	mov    %edx,0xc(%esp)
 80495bc:	c7 44 24 08 00 00 00 	movl   $0x0,0x8(%esp)
 80495c3:	00 
 80495c4:	8d 95 f4 df ff ff    	lea    -0x200c(%ebp),%edx
 80495ca:	89 54 24 04          	mov    %edx,0x4(%esp)
 80495ce:	89 04 24             	mov    %eax,(%esp)
 80495d1:	e8 05 0c 00 00       	call   804a1db <driver_post>
 80495d6:	89 45 f4             	mov    %eax,-0xc(%ebp)
 80495d9:	83 7d f4 00          	cmpl   $0x0,-0xc(%ebp)
 80495dd:	75 0e                	jne    80495ed <validate+0x12e>
 80495df:	c7 04 24 14 a8 04 08 	movl   $0x804a814,(%esp)
 80495e6:	e8 55 f4 ff ff       	call   8048a40 <puts@plt>
 80495eb:	eb 16                	jmp    8049603 <validate+0x144>
 80495ed:	8d 85 f4 bf ff ff    	lea    -0x400c(%ebp),%eax
 80495f3:	89 44 24 04          	mov    %eax,0x4(%esp)
 80495f7:	c7 04 24 44 a8 04 08 	movl   $0x804a844,(%esp)
 80495fe:	e8 6d f3 ff ff       	call   8048970 <printf@plt>
 8049603:	c7 04 24 82 a8 04 08 	movl   $0x804a882,(%esp)
 804960a:	e8 31 f4 ff ff       	call   8048a40 <puts@plt>
 804960f:	c9                   	leave  
 8049610:	c3                   	ret    
 8049611:	66 90                	xchg   %ax,%ax
 8049613:	90                   	nop

08049614 <sigalrm_handler>:
 8049614:	55                   	push   %ebp
 8049615:	89 e5                	mov    %esp,%ebp
 8049617:	83 ec 18             	sub    $0x18,%esp
 804961a:	c7 44 24 04 05 00 00 	movl   $0x5,0x4(%esp)
 8049621:	00 
 8049622:	c7 04 24 8c a8 04 08 	movl   $0x804a88c,(%esp)
 8049629:	e8 42 f3 ff ff       	call   8048970 <printf@plt>
 804962e:	c7 04 24 01 00 00 00 	movl   $0x1,(%esp)
 8049635:	e8 26 f4 ff ff       	call   8048a60 <exit@plt>

0804963a <rio_readinitb>:
 804963a:	55                   	push   %ebp
 804963b:	89 e5                	mov    %esp,%ebp
 804963d:	8b 45 08             	mov    0x8(%ebp),%eax
 8049640:	8b 55 0c             	mov    0xc(%ebp),%edx
 8049643:	89 10                	mov    %edx,(%eax)
 8049645:	8b 45 08             	mov    0x8(%ebp),%eax
 8049648:	c7 40 04 00 00 00 00 	movl   $0x0,0x4(%eax)
 804964f:	8b 45 08             	mov    0x8(%ebp),%eax
 8049652:	8d 50 0c             	lea    0xc(%eax),%edx
 8049655:	8b 45 08             	mov    0x8(%ebp),%eax
 8049658:	89 50 08             	mov    %edx,0x8(%eax)
 804965b:	5d                   	pop    %ebp
 804965c:	c3                   	ret    

0804965d <rio_read>:
 804965d:	55                   	push   %ebp
 804965e:	89 e5                	mov    %esp,%ebp
 8049660:	83 ec 28             	sub    $0x28,%esp
 8049663:	eb 62                	jmp    80496c7 <rio_read+0x6a>
 8049665:	8b 45 08             	mov    0x8(%ebp),%eax
 8049668:	8d 50 0c             	lea    0xc(%eax),%edx
 804966b:	8b 45 08             	mov    0x8(%ebp),%eax
 804966e:	8b 00                	mov    (%eax),%eax
 8049670:	c7 44 24 08 00 20 00 	movl   $0x2000,0x8(%esp)
 8049677:	00 
 8049678:	89 54 24 04          	mov    %edx,0x4(%esp)
 804967c:	89 04 24             	mov    %eax,(%esp)
 804967f:	e8 cc f2 ff ff       	call   8048950 <read@plt>
 8049684:	8b 55 08             	mov    0x8(%ebp),%edx
 8049687:	89 42 04             	mov    %eax,0x4(%edx)
 804968a:	8b 45 08             	mov    0x8(%ebp),%eax
 804968d:	8b 40 04             	mov    0x4(%eax),%eax
 8049690:	85 c0                	test   %eax,%eax
 8049692:	79 16                	jns    80496aa <rio_read+0x4d>
 8049694:	e8 57 f4 ff ff       	call   8048af0 <__errno_location@plt>
 8049699:	8b 00                	mov    (%eax),%eax
 804969b:	83 f8 04             	cmp    $0x4,%eax
 804969e:	74 27                	je     80496c7 <rio_read+0x6a>
 80496a0:	b8 ff ff ff ff       	mov    $0xffffffff,%eax
 80496a5:	e9 82 00 00 00       	jmp    804972c <rio_read+0xcf>
 80496aa:	8b 45 08             	mov    0x8(%ebp),%eax
 80496ad:	8b 40 04             	mov    0x4(%eax),%eax
 80496b0:	85 c0                	test   %eax,%eax
 80496b2:	75 07                	jne    80496bb <rio_read+0x5e>
 80496b4:	b8 00 00 00 00       	mov    $0x0,%eax
 80496b9:	eb 71                	jmp    804972c <rio_read+0xcf>
 80496bb:	8b 45 08             	mov    0x8(%ebp),%eax
 80496be:	8d 50 0c             	lea    0xc(%eax),%edx
 80496c1:	8b 45 08             	mov    0x8(%ebp),%eax
 80496c4:	89 50 08             	mov    %edx,0x8(%eax)
 80496c7:	8b 45 08             	mov    0x8(%ebp),%eax
 80496ca:	8b 40 04             	mov    0x4(%eax),%eax
 80496cd:	85 c0                	test   %eax,%eax
 80496cf:	7e 94                	jle    8049665 <rio_read+0x8>
 80496d1:	8b 45 10             	mov    0x10(%ebp),%eax
 80496d4:	89 45 f4             	mov    %eax,-0xc(%ebp)
 80496d7:	8b 45 08             	mov    0x8(%ebp),%eax
 80496da:	8b 40 04             	mov    0x4(%eax),%eax
 80496dd:	3b 45 10             	cmp    0x10(%ebp),%eax
 80496e0:	73 09                	jae    80496eb <rio_read+0x8e>
 80496e2:	8b 45 08             	mov    0x8(%ebp),%eax
 80496e5:	8b 40 04             	mov    0x4(%eax),%eax
 80496e8:	89 45 f4             	mov    %eax,-0xc(%ebp)
 80496eb:	8b 55 f4             	mov    -0xc(%ebp),%edx
 80496ee:	8b 45 08             	mov    0x8(%ebp),%eax
 80496f1:	8b 40 08             	mov    0x8(%eax),%eax
 80496f4:	89 54 24 08          	mov    %edx,0x8(%esp)
 80496f8:	89 44 24 04          	mov    %eax,0x4(%esp)
 80496fc:	8b 45 0c             	mov    0xc(%ebp),%eax
 80496ff:	89 04 24             	mov    %eax,(%esp)
 8049702:	e8 89 f2 ff ff       	call   8048990 <memcpy@plt>
 8049707:	8b 45 08             	mov    0x8(%ebp),%eax
 804970a:	8b 50 08             	mov    0x8(%eax),%edx
 804970d:	8b 45 f4             	mov    -0xc(%ebp),%eax
 8049710:	01 c2                	add    %eax,%edx
 8049712:	8b 45 08             	mov    0x8(%ebp),%eax
 8049715:	89 50 08             	mov    %edx,0x8(%eax)
 8049718:	8b 45 08             	mov    0x8(%ebp),%eax
 804971b:	8b 40 04             	mov    0x4(%eax),%eax
 804971e:	2b 45 f4             	sub    -0xc(%ebp),%eax
 8049721:	89 c2                	mov    %eax,%edx
 8049723:	8b 45 08             	mov    0x8(%ebp),%eax
 8049726:	89 50 04             	mov    %edx,0x4(%eax)
 8049729:	8b 45 f4             	mov    -0xc(%ebp),%eax
 804972c:	c9                   	leave  
 804972d:	c3                   	ret    

0804972e <rio_readlineb>:
 804972e:	55                   	push   %ebp
 804972f:	89 e5                	mov    %esp,%ebp
 8049731:	83 ec 28             	sub    $0x28,%esp
 8049734:	8b 45 0c             	mov    0xc(%ebp),%eax
 8049737:	89 45 f0             	mov    %eax,-0x10(%ebp)
 804973a:	c7 45 f4 01 00 00 00 	movl   $0x1,-0xc(%ebp)
 8049741:	eb 5c                	jmp    804979f <rio_readlineb+0x71>
 8049743:	c7 44 24 08 01 00 00 	movl   $0x1,0x8(%esp)
 804974a:	00 
 804974b:	8d 45 eb             	lea    -0x15(%ebp),%eax
 804974e:	89 44 24 04          	mov    %eax,0x4(%esp)
 8049752:	8b 45 08             	mov    0x8(%ebp),%eax
 8049755:	89 04 24             	mov    %eax,(%esp)
 8049758:	e8 00 ff ff ff       	call   804965d <rio_read>
 804975d:	89 45 ec             	mov    %eax,-0x14(%ebp)
 8049760:	83 7d ec 01          	cmpl   $0x1,-0x14(%ebp)
 8049764:	75 19                	jne    804977f <rio_readlineb+0x51>
 8049766:	8b 45 f0             	mov    -0x10(%ebp),%eax
 8049769:	8d 50 01             	lea    0x1(%eax),%edx
 804976c:	89 55 f0             	mov    %edx,-0x10(%ebp)
 804976f:	0f b6 55 eb          	movzbl -0x15(%ebp),%edx
 8049773:	88 10                	mov    %dl,(%eax)
 8049775:	0f b6 45 eb          	movzbl -0x15(%ebp),%eax
 8049779:	3c 0a                	cmp    $0xa,%al
 804977b:	75 1e                	jne    804979b <rio_readlineb+0x6d>
 804977d:	eb 28                	jmp    80497a7 <rio_readlineb+0x79>
 804977f:	83 7d ec 00          	cmpl   $0x0,-0x14(%ebp)
 8049783:	75 0f                	jne    8049794 <rio_readlineb+0x66>
 8049785:	83 7d f4 01          	cmpl   $0x1,-0xc(%ebp)
 8049789:	75 07                	jne    8049792 <rio_readlineb+0x64>
 804978b:	b8 00 00 00 00       	mov    $0x0,%eax
 8049790:	eb 1e                	jmp    80497b0 <rio_readlineb+0x82>
 8049792:	eb 13                	jmp    80497a7 <rio_readlineb+0x79>
 8049794:	b8 ff ff ff ff       	mov    $0xffffffff,%eax
 8049799:	eb 15                	jmp    80497b0 <rio_readlineb+0x82>
 804979b:	83 45 f4 01          	addl   $0x1,-0xc(%ebp)
 804979f:	8b 45 f4             	mov    -0xc(%ebp),%eax
 80497a2:	3b 45 10             	cmp    0x10(%ebp),%eax
 80497a5:	72 9c                	jb     8049743 <rio_readlineb+0x15>
 80497a7:	8b 45 f0             	mov    -0x10(%ebp),%eax
 80497aa:	c6 00 00             	movb   $0x0,(%eax)
 80497ad:	8b 45 f4             	mov    -0xc(%ebp),%eax
 80497b0:	c9                   	leave  
 80497b1:	c3                   	ret    

080497b2 <rio_writen>:
 80497b2:	55                   	push   %ebp
 80497b3:	89 e5                	mov    %esp,%ebp
 80497b5:	83 ec 28             	sub    $0x28,%esp
 80497b8:	8b 45 10             	mov    0x10(%ebp),%eax
 80497bb:	89 45 f4             	mov    %eax,-0xc(%ebp)
 80497be:	8b 45 0c             	mov    0xc(%ebp),%eax
 80497c1:	89 45 ec             	mov    %eax,-0x14(%ebp)
 80497c4:	eb 4a                	jmp    8049810 <rio_writen+0x5e>
 80497c6:	8b 45 f4             	mov    -0xc(%ebp),%eax
 80497c9:	89 44 24 08          	mov    %eax,0x8(%esp)
 80497cd:	8b 45 ec             	mov    -0x14(%ebp),%eax
 80497d0:	89 44 24 04          	mov    %eax,0x4(%esp)
 80497d4:	8b 45 08             	mov    0x8(%ebp),%eax
 80497d7:	89 04 24             	mov    %eax,(%esp)
 80497da:	e8 d1 f2 ff ff       	call   8048ab0 <write@plt>
 80497df:	89 45 f0             	mov    %eax,-0x10(%ebp)
 80497e2:	83 7d f0 00          	cmpl   $0x0,-0x10(%ebp)
 80497e6:	7f 1c                	jg     8049804 <rio_writen+0x52>
 80497e8:	e8 03 f3 ff ff       	call   8048af0 <__errno_location@plt>
 80497ed:	8b 00                	mov    (%eax),%eax
 80497ef:	83 f8 04             	cmp    $0x4,%eax
 80497f2:	75 09                	jne    80497fd <rio_writen+0x4b>
 80497f4:	c7 45 f0 00 00 00 00 	movl   $0x0,-0x10(%ebp)
 80497fb:	eb 07                	jmp    8049804 <rio_writen+0x52>
 80497fd:	b8 ff ff ff ff       	mov    $0xffffffff,%eax
 8049802:	eb 15                	jmp    8049819 <rio_writen+0x67>
 8049804:	8b 45 f0             	mov    -0x10(%ebp),%eax
 8049807:	29 45 f4             	sub    %eax,-0xc(%ebp)
 804980a:	8b 45 f0             	mov    -0x10(%ebp),%eax
 804980d:	01 45 ec             	add    %eax,-0x14(%ebp)
 8049810:	83 7d f4 00          	cmpl   $0x0,-0xc(%ebp)
 8049814:	75 b0                	jne    80497c6 <rio_writen+0x14>
 8049816:	8b 45 10             	mov    0x10(%ebp),%eax
 8049819:	c9                   	leave  
 804981a:	c3                   	ret    

0804981b <urlencode>:
 804981b:	55                   	push   %ebp
 804981c:	89 e5                	mov    %esp,%ebp
 804981e:	83 ec 28             	sub    $0x28,%esp
 8049821:	8b 45 08             	mov    0x8(%ebp),%eax
 8049824:	89 04 24             	mov    %eax,(%esp)
 8049827:	e8 64 f2 ff ff       	call   8048a90 <strlen@plt>
 804982c:	89 45 f4             	mov    %eax,-0xc(%ebp)
 804982f:	e9 0a 01 00 00       	jmp    804993e <urlencode+0x123>
 8049834:	8b 45 08             	mov    0x8(%ebp),%eax
 8049837:	0f b6 00             	movzbl (%eax),%eax
 804983a:	3c 2a                	cmp    $0x2a,%al
 804983c:	74 5a                	je     8049898 <urlencode+0x7d>
 804983e:	8b 45 08             	mov    0x8(%ebp),%eax
 8049841:	0f b6 00             	movzbl (%eax),%eax
 8049844:	3c 2d                	cmp    $0x2d,%al
 8049846:	74 50                	je     8049898 <urlencode+0x7d>
 8049848:	8b 45 08             	mov    0x8(%ebp),%eax
 804984b:	0f b6 00             	movzbl (%eax),%eax
 804984e:	3c 2e                	cmp    $0x2e,%al
 8049850:	74 46                	je     8049898 <urlencode+0x7d>
 8049852:	8b 45 08             	mov    0x8(%ebp),%eax
 8049855:	0f b6 00             	movzbl (%eax),%eax
 8049858:	3c 5f                	cmp    $0x5f,%al
 804985a:	74 3c                	je     8049898 <urlencode+0x7d>
 804985c:	8b 45 08             	mov    0x8(%ebp),%eax
 804985f:	0f b6 00             	movzbl (%eax),%eax
 8049862:	3c 2f                	cmp    $0x2f,%al
 8049864:	76 0a                	jbe    8049870 <urlencode+0x55>
 8049866:	8b 45 08             	mov    0x8(%ebp),%eax
 8049869:	0f b6 00             	movzbl (%eax),%eax
 804986c:	3c 39                	cmp    $0x39,%al
 804986e:	76 28                	jbe    8049898 <urlencode+0x7d>
 8049870:	8b 45 08             	mov    0x8(%ebp),%eax
 8049873:	0f b6 00             	movzbl (%eax),%eax
 8049876:	3c 40                	cmp    $0x40,%al
 8049878:	76 0a                	jbe    8049884 <urlencode+0x69>
 804987a:	8b 45 08             	mov    0x8(%ebp),%eax
 804987d:	0f b6 00             	movzbl (%eax),%eax
 8049880:	3c 5a                	cmp    $0x5a,%al
 8049882:	76 14                	jbe    8049898 <urlencode+0x7d>
 8049884:	8b 45 08             	mov    0x8(%ebp),%eax
 8049887:	0f b6 00             	movzbl (%eax),%eax
 804988a:	3c 60                	cmp    $0x60,%al
 804988c:	76 20                	jbe    80498ae <urlencode+0x93>
 804988e:	8b 45 08             	mov    0x8(%ebp),%eax
 8049891:	0f b6 00             	movzbl (%eax),%eax
 8049894:	3c 7a                	cmp    $0x7a,%al
 8049896:	77 16                	ja     80498ae <urlencode+0x93>
 8049898:	8b 45 0c             	mov    0xc(%ebp),%eax
 804989b:	8d 50 01             	lea    0x1(%eax),%edx
 804989e:	89 55 0c             	mov    %edx,0xc(%ebp)
 80498a1:	8b 55 08             	mov    0x8(%ebp),%edx
 80498a4:	0f b6 12             	movzbl (%edx),%edx
 80498a7:	88 10                	mov    %dl,(%eax)
 80498a9:	e9 8c 00 00 00       	jmp    804993a <urlencode+0x11f>
 80498ae:	8b 45 08             	mov    0x8(%ebp),%eax
 80498b1:	0f b6 00             	movzbl (%eax),%eax
 80498b4:	3c 20                	cmp    $0x20,%al
 80498b6:	75 0e                	jne    80498c6 <urlencode+0xab>
 80498b8:	8b 45 0c             	mov    0xc(%ebp),%eax
 80498bb:	8d 50 01             	lea    0x1(%eax),%edx
 80498be:	89 55 0c             	mov    %edx,0xc(%ebp)
 80498c1:	c6 00 2b             	movb   $0x2b,(%eax)
 80498c4:	eb 74                	jmp    804993a <urlencode+0x11f>
 80498c6:	8b 45 08             	mov    0x8(%ebp),%eax
 80498c9:	0f b6 00             	movzbl (%eax),%eax
 80498cc:	3c 1f                	cmp    $0x1f,%al
 80498ce:	76 0a                	jbe    80498da <urlencode+0xbf>
 80498d0:	8b 45 08             	mov    0x8(%ebp),%eax
 80498d3:	0f b6 00             	movzbl (%eax),%eax
 80498d6:	84 c0                	test   %al,%al
 80498d8:	79 0a                	jns    80498e4 <urlencode+0xc9>
 80498da:	8b 45 08             	mov    0x8(%ebp),%eax
 80498dd:	0f b6 00             	movzbl (%eax),%eax
 80498e0:	3c 09                	cmp    $0x9,%al
 80498e2:	75 4f                	jne    8049933 <urlencode+0x118>
 80498e4:	8b 45 08             	mov    0x8(%ebp),%eax
 80498e7:	0f b6 00             	movzbl (%eax),%eax
 80498ea:	0f b6 c0             	movzbl %al,%eax
 80498ed:	89 44 24 08          	mov    %eax,0x8(%esp)
 80498f1:	c7 44 24 04 b0 a8 04 	movl   $0x804a8b0,0x4(%esp)
 80498f8:	08 
 80498f9:	8d 45 ec             	lea    -0x14(%ebp),%eax
 80498fc:	89 04 24             	mov    %eax,(%esp)
 80498ff:	e8 1c f2 ff ff       	call   8048b20 <sprintf@plt>
 8049904:	8b 45 0c             	mov    0xc(%ebp),%eax
 8049907:	8d 50 01             	lea    0x1(%eax),%edx
 804990a:	89 55 0c             	mov    %edx,0xc(%ebp)
 804990d:	0f b6 55 ec          	movzbl -0x14(%ebp),%edx
 8049911:	88 10                	mov    %dl,(%eax)
 8049913:	8b 45 0c             	mov    0xc(%ebp),%eax
 8049916:	8d 50 01             	lea    0x1(%eax),%edx
 8049919:	89 55 0c             	mov    %edx,0xc(%ebp)
 804991c:	0f b6 55 ed          	movzbl -0x13(%ebp),%edx
 8049920:	88 10                	mov    %dl,(%eax)
 8049922:	8b 45 0c             	mov    0xc(%ebp),%eax
 8049925:	8d 50 01             	lea    0x1(%eax),%edx
 8049928:	89 55 0c             	mov    %edx,0xc(%ebp)
 804992b:	0f b6 55 ee          	movzbl -0x12(%ebp),%edx
 804992f:	88 10                	mov    %dl,(%eax)
 8049931:	eb 07                	jmp    804993a <urlencode+0x11f>
 8049933:	b8 ff ff ff ff       	mov    $0xffffffff,%eax
 8049938:	eb 1a                	jmp    8049954 <urlencode+0x139>
 804993a:	83 45 08 01          	addl   $0x1,0x8(%ebp)
 804993e:	8b 45 f4             	mov    -0xc(%ebp),%eax
 8049941:	8d 50 ff             	lea    -0x1(%eax),%edx
 8049944:	89 55 f4             	mov    %edx,-0xc(%ebp)
 8049947:	85 c0                	test   %eax,%eax
 8049949:	0f 85 e5 fe ff ff    	jne    8049834 <urlencode+0x19>
 804994f:	b8 00 00 00 00       	mov    $0x0,%eax
 8049954:	c9                   	leave  
 8049955:	c3                   	ret    

08049956 <submitr>:
 8049956:	55                   	push   %ebp
 8049957:	89 e5                	mov    %esp,%ebp
 8049959:	57                   	push   %edi
 804995a:	56                   	push   %esi
 804995b:	53                   	push   %ebx
 804995c:	81 ec 5c a0 00 00    	sub    $0xa05c,%esp
 8049962:	c7 85 b8 7f ff ff 00 	movl   $0x0,-0x8048(%ebp)
 8049969:	00 00 00 
 804996c:	c7 44 24 08 00 00 00 	movl   $0x0,0x8(%esp)
 8049973:	00 
 8049974:	c7 44 24 04 01 00 00 	movl   $0x1,0x4(%esp)
 804997b:	00 
 804997c:	c7 04 24 02 00 00 00 	movl   $0x2,(%esp)
 8049983:	e8 a8 f1 ff ff       	call   8048b30 <socket@plt>
 8049988:	89 45 e4             	mov    %eax,-0x1c(%ebp)
 804998b:	83 7d e4 00          	cmpl   $0x0,-0x1c(%ebp)
 804998f:	79 51                	jns    80499e2 <submitr+0x8c>
 8049991:	8b 45 20             	mov    0x20(%ebp),%eax
 8049994:	c7 00 45 72 72 6f    	movl   $0x6f727245,(%eax)
 804999a:	c7 40 04 72 3a 20 43 	movl   $0x43203a72,0x4(%eax)
 80499a1:	c7 40 08 6c 69 65 6e 	movl   $0x6e65696c,0x8(%eax)
 80499a8:	c7 40 0c 74 20 75 6e 	movl   $0x6e752074,0xc(%eax)
 80499af:	c7 40 10 61 62 6c 65 	movl   $0x656c6261,0x10(%eax)
 80499b6:	c7 40 14 20 74 6f 20 	movl   $0x206f7420,0x14(%eax)
 80499bd:	c7 40 18 63 72 65 61 	movl   $0x61657263,0x18(%eax)
 80499c4:	c7 40 1c 74 65 20 73 	movl   $0x73206574,0x1c(%eax)
 80499cb:	c7 40 20 6f 63 6b 65 	movl   $0x656b636f,0x20(%eax)
 80499d2:	66 c7 40 24 74 00    	movw   $0x74,0x24(%eax)
 80499d8:	b8 ff ff ff ff       	mov    $0xffffffff,%eax
 80499dd:	e9 e9 05 00 00       	jmp    8049fcb <submitr+0x675>
 80499e2:	8b 45 08             	mov    0x8(%ebp),%eax
 80499e5:	89 04 24             	mov    %eax,(%esp)
 80499e8:	e8 63 f1 ff ff       	call   8048b50 <gethostbyname@plt>
 80499ed:	89 45 e0             	mov    %eax,-0x20(%ebp)
 80499f0:	83 7d e0 00          	cmpl   $0x0,-0x20(%ebp)
 80499f4:	75 2f                	jne    8049a25 <submitr+0xcf>
 80499f6:	8b 45 08             	mov    0x8(%ebp),%eax
 80499f9:	89 44 24 08          	mov    %eax,0x8(%esp)
 80499fd:	c7 44 24 04 b8 a8 04 	movl   $0x804a8b8,0x4(%esp)
 8049a04:	08 
 8049a05:	8b 45 20             	mov    0x20(%ebp),%eax
 8049a08:	89 04 24             	mov    %eax,(%esp)
 8049a0b:	e8 10 f1 ff ff       	call   8048b20 <sprintf@plt>
 8049a10:	8b 45 e4             	mov    -0x1c(%ebp),%eax
 8049a13:	89 04 24             	mov    %eax,(%esp)
 8049a16:	e8 55 f1 ff ff       	call   8048b70 <close@plt>
 8049a1b:	b8 ff ff ff ff       	mov    $0xffffffff,%eax
 8049a20:	e9 a6 05 00 00       	jmp    8049fcb <submitr+0x675>
 8049a25:	c7 44 24 04 10 00 00 	movl   $0x10,0x4(%esp)
 8049a2c:	00 
 8049a2d:	8d 45 c8             	lea    -0x38(%ebp),%eax
 8049a30:	89 04 24             	mov    %eax,(%esp)
 8049a33:	e8 68 ef ff ff       	call   80489a0 <bzero@plt>
 8049a38:	66 c7 45 c8 02 00    	movw   $0x2,-0x38(%ebp)
 8049a3e:	8b 45 e0             	mov    -0x20(%ebp),%eax
 8049a41:	8b 40 0c             	mov    0xc(%eax),%eax
 8049a44:	89 c2                	mov    %eax,%edx
 8049a46:	8b 45 e0             	mov    -0x20(%ebp),%eax
 8049a49:	8b 40 10             	mov    0x10(%eax),%eax
 8049a4c:	8b 00                	mov    (%eax),%eax
 8049a4e:	89 54 24 08          	mov    %edx,0x8(%esp)
 8049a52:	8d 55 c8             	lea    -0x38(%ebp),%edx
 8049a55:	83 c2 04             	add    $0x4,%edx
 8049a58:	89 54 24 04          	mov    %edx,0x4(%esp)
 8049a5c:	89 04 24             	mov    %eax,(%esp)
 8049a5f:	e8 9c ef ff ff       	call   8048a00 <bcopy@plt>
 8049a64:	8b 45 0c             	mov    0xc(%ebp),%eax
 8049a67:	0f b7 c0             	movzwl %ax,%eax
 8049a6a:	89 04 24             	mov    %eax,(%esp)
 8049a6d:	e8 6e ef ff ff       	call   80489e0 <htons@plt>
 8049a72:	66 89 45 ca          	mov    %ax,-0x36(%ebp)
 8049a76:	c7 44 24 08 10 00 00 	movl   $0x10,0x8(%esp)
 8049a7d:	00 
 8049a7e:	8d 45 c8             	lea    -0x38(%ebp),%eax
 8049a81:	89 44 24 04          	mov    %eax,0x4(%esp)
 8049a85:	8b 45 e4             	mov    -0x1c(%ebp),%eax
 8049a88:	89 04 24             	mov    %eax,(%esp)
 8049a8b:	e8 d0 f0 ff ff       	call   8048b60 <connect@plt>
 8049a90:	85 c0                	test   %eax,%eax
 8049a92:	79 2f                	jns    8049ac3 <submitr+0x16d>
 8049a94:	8b 45 08             	mov    0x8(%ebp),%eax
 8049a97:	89 44 24 08          	mov    %eax,0x8(%esp)
 8049a9b:	c7 44 24 04 e4 a8 04 	movl   $0x804a8e4,0x4(%esp)
 8049aa2:	08 
 8049aa3:	8b 45 20             	mov    0x20(%ebp),%eax
 8049aa6:	89 04 24             	mov    %eax,(%esp)
 8049aa9:	e8 72 f0 ff ff       	call   8048b20 <sprintf@plt>
 8049aae:	8b 45 e4             	mov    -0x1c(%ebp),%eax
 8049ab1:	89 04 24             	mov    %eax,(%esp)
 8049ab4:	e8 b7 f0 ff ff       	call   8048b70 <close@plt>
 8049ab9:	b8 ff ff ff ff       	mov    $0xffffffff,%eax
 8049abe:	e9 08 05 00 00       	jmp    8049fcb <submitr+0x675>
 8049ac3:	8b 45 1c             	mov    0x1c(%ebp),%eax
 8049ac6:	89 04 24             	mov    %eax,(%esp)
 8049ac9:	e8 c2 ef ff ff       	call   8048a90 <strlen@plt>
 8049ace:	89 45 dc             	mov    %eax,-0x24(%ebp)
 8049ad1:	8b 45 10             	mov    0x10(%ebp),%eax
 8049ad4:	89 04 24             	mov    %eax,(%esp)
 8049ad7:	e8 b4 ef ff ff       	call   8048a90 <strlen@plt>
 8049adc:	89 c3                	mov    %eax,%ebx
 8049ade:	8b 45 14             	mov    0x14(%ebp),%eax
 8049ae1:	89 04 24             	mov    %eax,(%esp)
 8049ae4:	e8 a7 ef ff ff       	call   8048a90 <strlen@plt>
 8049ae9:	01 c3                	add    %eax,%ebx
 8049aeb:	8b 45 18             	mov    0x18(%ebp),%eax
 8049aee:	89 04 24             	mov    %eax,(%esp)
 8049af1:	e8 9a ef ff ff       	call   8048a90 <strlen@plt>
 8049af6:	8d 0c 03             	lea    (%ebx,%eax,1),%ecx
 8049af9:	8b 55 dc             	mov    -0x24(%ebp),%edx
 8049afc:	89 d0                	mov    %edx,%eax
 8049afe:	01 c0                	add    %eax,%eax
 8049b00:	01 d0                	add    %edx,%eax
 8049b02:	01 c8                	add    %ecx,%eax
 8049b04:	83 e8 80             	sub    $0xffffff80,%eax
 8049b07:	89 45 d8             	mov    %eax,-0x28(%ebp)
 8049b0a:	81 7d d8 00 20 00 00 	cmpl   $0x2000,-0x28(%ebp)
 8049b11:	76 79                	jbe    8049b8c <submitr+0x236>
 8049b13:	8b 45 20             	mov    0x20(%ebp),%eax
 8049b16:	c7 00 45 72 72 6f    	movl   $0x6f727245,(%eax)
 8049b1c:	c7 40 04 72 3a 20 52 	movl   $0x52203a72,0x4(%eax)
 8049b23:	c7 40 08 65 73 75 6c 	movl   $0x6c757365,0x8(%eax)
 8049b2a:	c7 40 0c 74 20 73 74 	movl   $0x74732074,0xc(%eax)
 8049b31:	c7 40 10 72 69 6e 67 	movl   $0x676e6972,0x10(%eax)
 8049b38:	c7 40 14 20 74 6f 6f 	movl   $0x6f6f7420,0x14(%eax)
 8049b3f:	c7 40 18 20 6c 61 72 	movl   $0x72616c20,0x18(%eax)
 8049b46:	c7 40 1c 67 65 2e 20 	movl   $0x202e6567,0x1c(%eax)
 8049b4d:	c7 40 20 49 6e 63 72 	movl   $0x72636e49,0x20(%eax)
 8049b54:	c7 40 24 65 61 73 65 	movl   $0x65736165,0x24(%eax)
 8049b5b:	c7 40 28 20 53 55 42 	movl   $0x42555320,0x28(%eax)
 8049b62:	c7 40 2c 4d 49 54 52 	movl   $0x5254494d,0x2c(%eax)
 8049b69:	c7 40 30 5f 4d 41 58 	movl   $0x58414d5f,0x30(%eax)
 8049b70:	c7 40 34 42 55 46 00 	movl   $0x465542,0x34(%eax)
 8049b77:	8b 45 e4             	mov    -0x1c(%ebp),%eax
 8049b7a:	89 04 24             	mov    %eax,(%esp)
 8049b7d:	e8 ee ef ff ff       	call   8048b70 <close@plt>
 8049b82:	b8 ff ff ff ff       	mov    $0xffffffff,%eax
 8049b87:	e9 3f 04 00 00       	jmp    8049fcb <submitr+0x675>
 8049b8c:	c7 44 24 04 00 20 00 	movl   $0x2000,0x4(%esp)
 8049b93:	00 
 8049b94:	8d 85 bc 9f ff ff    	lea    -0x6044(%ebp),%eax
 8049b9a:	89 04 24             	mov    %eax,(%esp)
 8049b9d:	e8 fe ed ff ff       	call   80489a0 <bzero@plt>
 8049ba2:	8d 85 bc 9f ff ff    	lea    -0x6044(%ebp),%eax
 8049ba8:	89 44 24 04          	mov    %eax,0x4(%esp)
 8049bac:	8b 45 1c             	mov    0x1c(%ebp),%eax
 8049baf:	89 04 24             	mov    %eax,(%esp)
 8049bb2:	e8 64 fc ff ff       	call   804981b <urlencode>
 8049bb7:	85 c0                	test   %eax,%eax
 8049bb9:	0f 89 87 00 00 00    	jns    8049c46 <submitr+0x2f0>
 8049bbf:	8b 45 20             	mov    0x20(%ebp),%eax
 8049bc2:	ba 0c a9 04 08       	mov    $0x804a90c,%edx
 8049bc7:	bb 43 00 00 00       	mov    $0x43,%ebx
 8049bcc:	89 c1                	mov    %eax,%ecx
 8049bce:	83 e1 01             	and    $0x1,%ecx
 8049bd1:	85 c9                	test   %ecx,%ecx
 8049bd3:	74 0e                	je     8049be3 <submitr+0x28d>
 8049bd5:	0f b6 0a             	movzbl (%edx),%ecx
 8049bd8:	88 08                	mov    %cl,(%eax)
 8049bda:	83 c0 01             	add    $0x1,%eax
 8049bdd:	83 c2 01             	add    $0x1,%edx
 8049be0:	83 eb 01             	sub    $0x1,%ebx
 8049be3:	89 c1                	mov    %eax,%ecx
 8049be5:	83 e1 02             	and    $0x2,%ecx
 8049be8:	85 c9                	test   %ecx,%ecx
 8049bea:	74 0f                	je     8049bfb <submitr+0x2a5>
 8049bec:	0f b7 0a             	movzwl (%edx),%ecx
 8049bef:	66 89 08             	mov    %cx,(%eax)
 8049bf2:	83 c0 02             	add    $0x2,%eax
 8049bf5:	83 c2 02             	add    $0x2,%edx
 8049bf8:	83 eb 02             	sub    $0x2,%ebx
 8049bfb:	89 d9                	mov    %ebx,%ecx
 8049bfd:	c1 e9 02             	shr    $0x2,%ecx
 8049c00:	89 c7                	mov    %eax,%edi
 8049c02:	89 d6                	mov    %edx,%esi
 8049c04:	f3 a5                	rep movsl %ds:(%esi),%es:(%edi)
 8049c06:	89 f2                	mov    %esi,%edx
 8049c08:	89 f8                	mov    %edi,%eax
 8049c0a:	b9 00 00 00 00       	mov    $0x0,%ecx
 8049c0f:	89 de                	mov    %ebx,%esi
 8049c11:	83 e6 02             	and    $0x2,%esi
 8049c14:	85 f6                	test   %esi,%esi
 8049c16:	74 0b                	je     8049c23 <submitr+0x2cd>
 8049c18:	0f b7 34 0a          	movzwl (%edx,%ecx,1),%esi
 8049c1c:	66 89 34 08          	mov    %si,(%eax,%ecx,1)
 8049c20:	83 c1 02             	add    $0x2,%ecx
 8049c23:	83 e3 01             	and    $0x1,%ebx
 8049c26:	85 db                	test   %ebx,%ebx
 8049c28:	74 07                	je     8049c31 <submitr+0x2db>
 8049c2a:	0f b6 14 0a          	movzbl (%edx,%ecx,1),%edx
 8049c2e:	88 14 08             	mov    %dl,(%eax,%ecx,1)
 8049c31:	8b 45 e4             	mov    -0x1c(%ebp),%eax
 8049c34:	89 04 24             	mov    %eax,(%esp)
 8049c37:	e8 34 ef ff ff       	call   8048b70 <close@plt>
 8049c3c:	b8 ff ff ff ff       	mov    $0xffffffff,%eax
 8049c41:	e9 85 03 00 00       	jmp    8049fcb <submitr+0x675>
 8049c46:	8d 85 bc 9f ff ff    	lea    -0x6044(%ebp),%eax
 8049c4c:	89 44 24 14          	mov    %eax,0x14(%esp)
 8049c50:	8b 45 18             	mov    0x18(%ebp),%eax
 8049c53:	89 44 24 10          	mov    %eax,0x10(%esp)
 8049c57:	8b 45 14             	mov    0x14(%ebp),%eax
 8049c5a:	89 44 24 0c          	mov    %eax,0xc(%esp)
 8049c5e:	8b 45 10             	mov    0x10(%ebp),%eax
 8049c61:	89 44 24 08          	mov    %eax,0x8(%esp)
 8049c65:	c7 44 24 04 50 a9 04 	movl   $0x804a950,0x4(%esp)
 8049c6c:	08 
 8049c6d:	8d 85 bc bf ff ff    	lea    -0x4044(%ebp),%eax
 8049c73:	89 04 24             	mov    %eax,(%esp)
 8049c76:	e8 a5 ee ff ff       	call   8048b20 <sprintf@plt>
 8049c7b:	8d 85 bc bf ff ff    	lea    -0x4044(%ebp),%eax
 8049c81:	89 04 24             	mov    %eax,(%esp)
 8049c84:	e8 07 ee ff ff       	call   8048a90 <strlen@plt>
 8049c89:	89 44 24 08          	mov    %eax,0x8(%esp)
 8049c8d:	8d 85 bc bf ff ff    	lea    -0x4044(%ebp),%eax
 8049c93:	89 44 24 04          	mov    %eax,0x4(%esp)
 8049c97:	8b 45 e4             	mov    -0x1c(%ebp),%eax
 8049c9a:	89 04 24             	mov    %eax,(%esp)
 8049c9d:	e8 10 fb ff ff       	call   80497b2 <rio_writen>
 8049ca2:	85 c0                	test   %eax,%eax
 8049ca4:	79 64                	jns    8049d0a <submitr+0x3b4>
 8049ca6:	8b 45 20             	mov    0x20(%ebp),%eax
 8049ca9:	c7 00 45 72 72 6f    	movl   $0x6f727245,(%eax)
 8049caf:	c7 40 04 72 3a 20 43 	movl   $0x43203a72,0x4(%eax)
 8049cb6:	c7 40 08 6c 69 65 6e 	movl   $0x6e65696c,0x8(%eax)
 8049cbd:	c7 40 0c 74 20 75 6e 	movl   $0x6e752074,0xc(%eax)
 8049cc4:	c7 40 10 61 62 6c 65 	movl   $0x656c6261,0x10(%eax)
 8049ccb:	c7 40 14 20 74 6f 20 	movl   $0x206f7420,0x14(%eax)
 8049cd2:	c7 40 18 77 72 69 74 	movl   $0x74697277,0x18(%eax)
 8049cd9:	c7 40 1c 65 20 74 6f 	movl   $0x6f742065,0x1c(%eax)
 8049ce0:	c7 40 20 20 74 68 65 	movl   $0x65687420,0x20(%eax)
 8049ce7:	c7 40 24 20 73 65 72 	movl   $0x72657320,0x24(%eax)
 8049cee:	c7 40 28 76 65 72 00 	movl   $0x726576,0x28(%eax)
 8049cf5:	8b 45 e4             	mov    -0x1c(%ebp),%eax
 8049cf8:	89 04 24             	mov    %eax,(%esp)
 8049cfb:	e8 70 ee ff ff       	call   8048b70 <close@plt>
 8049d00:	b8 ff ff ff ff       	mov    $0xffffffff,%eax
 8049d05:	e9 c1 02 00 00       	jmp    8049fcb <submitr+0x675>
 8049d0a:	8b 45 e4             	mov    -0x1c(%ebp),%eax
 8049d0d:	89 44 24 04          	mov    %eax,0x4(%esp)
 8049d11:	8d 85 bc df ff ff    	lea    -0x2044(%ebp),%eax
 8049d17:	89 04 24             	mov    %eax,(%esp)
 8049d1a:	e8 1b f9 ff ff       	call   804963a <rio_readinitb>
 8049d1f:	c7 44 24 08 00 20 00 	movl   $0x2000,0x8(%esp)
 8049d26:	00 
 8049d27:	8d 85 bc bf ff ff    	lea    -0x4044(%ebp),%eax
 8049d2d:	89 44 24 04          	mov    %eax,0x4(%esp)
 8049d31:	8d 85 bc df ff ff    	lea    -0x2044(%ebp),%eax
 8049d37:	89 04 24             	mov    %eax,(%esp)
 8049d3a:	e8 ef f9 ff ff       	call   804972e <rio_readlineb>
 8049d3f:	85 c0                	test   %eax,%eax
 8049d41:	7f 78                	jg     8049dbb <submitr+0x465>
 8049d43:	8b 45 20             	mov    0x20(%ebp),%eax
 8049d46:	c7 00 45 72 72 6f    	movl   $0x6f727245,(%eax)
 8049d4c:	c7 40 04 72 3a 20 43 	movl   $0x43203a72,0x4(%eax)
 8049d53:	c7 40 08 6c 69 65 6e 	movl   $0x6e65696c,0x8(%eax)
 8049d5a:	c7 40 0c 74 20 75 6e 	movl   $0x6e752074,0xc(%eax)
 8049d61:	c7 40 10 61 62 6c 65 	movl   $0x656c6261,0x10(%eax)
 8049d68:	c7 40 14 20 74 6f 20 	movl   $0x206f7420,0x14(%eax)
 8049d6f:	c7 40 18 72 65 61 64 	movl   $0x64616572,0x18(%eax)
 8049d76:	c7 40 1c 20 66 69 72 	movl   $0x72696620,0x1c(%eax)
 8049d7d:	c7 40 20 73 74 20 68 	movl   $0x68207473,0x20(%eax)
 8049d84:	c7 40 24 65 61 64 65 	movl   $0x65646165,0x24(%eax)
 8049d8b:	c7 40 28 72 20 66 72 	movl   $0x72662072,0x28(%eax)
 8049d92:	c7 40 2c 6f 6d 20 73 	movl   $0x73206d6f,0x2c(%eax)
 8049d99:	c7 40 30 65 72 76 65 	movl   $0x65767265,0x30(%eax)
 8049da0:	66 c7 40 34 72 00    	movw   $0x72,0x34(%eax)
 8049da6:	8b 45 e4             	mov    -0x1c(%ebp),%eax
 8049da9:	89 04 24             	mov    %eax,(%esp)
 8049dac:	e8 bf ed ff ff       	call   8048b70 <close@plt>
 8049db1:	b8 ff ff ff ff       	mov    $0xffffffff,%eax
 8049db6:	e9 10 02 00 00       	jmp    8049fcb <submitr+0x675>
 8049dbb:	8d 85 b8 5f ff ff    	lea    -0xa048(%ebp),%eax
 8049dc1:	89 44 24 10          	mov    %eax,0x10(%esp)
 8049dc5:	8d 85 b8 7f ff ff    	lea    -0x8048(%ebp),%eax
 8049dcb:	89 44 24 0c          	mov    %eax,0xc(%esp)
 8049dcf:	8d 85 bc 7f ff ff    	lea    -0x8044(%ebp),%eax
 8049dd5:	89 44 24 08          	mov    %eax,0x8(%esp)
 8049dd9:	c7 44 24 04 9a a9 04 	movl   $0x804a99a,0x4(%esp)
 8049de0:	08 
 8049de1:	8d 85 bc bf ff ff    	lea    -0x4044(%ebp),%eax
 8049de7:	89 04 24             	mov    %eax,(%esp)
 8049dea:	e8 e1 ec ff ff       	call   8048ad0 <__isoc99_sscanf@plt>
 8049def:	8b 85 b8 7f ff ff    	mov    -0x8048(%ebp),%eax
 8049df5:	3d c8 00 00 00       	cmp    $0xc8,%eax
 8049dfa:	74 3c                	je     8049e38 <submitr+0x4e2>
 8049dfc:	8b 85 b8 7f ff ff    	mov    -0x8048(%ebp),%eax
 8049e02:	8d 95 b8 5f ff ff    	lea    -0xa048(%ebp),%edx
 8049e08:	89 54 24 0c          	mov    %edx,0xc(%esp)
 8049e0c:	89 44 24 08          	mov    %eax,0x8(%esp)
 8049e10:	c7 44 24 04 ac a9 04 	movl   $0x804a9ac,0x4(%esp)
 8049e17:	08 
 8049e18:	8b 45 20             	mov    0x20(%ebp),%eax
 8049e1b:	89 04 24             	mov    %eax,(%esp)
 8049e1e:	e8 fd ec ff ff       	call   8048b20 <sprintf@plt>
 8049e23:	8b 45 e4             	mov    -0x1c(%ebp),%eax
 8049e26:	89 04 24             	mov    %eax,(%esp)
 8049e29:	e8 42 ed ff ff       	call   8048b70 <close@plt>
 8049e2e:	b8 ff ff ff ff       	mov    $0xffffffff,%eax
 8049e33:	e9 93 01 00 00       	jmp    8049fcb <submitr+0x675>
 8049e38:	e9 93 00 00 00       	jmp    8049ed0 <submitr+0x57a>
 8049e3d:	c7 44 24 08 00 20 00 	movl   $0x2000,0x8(%esp)
 8049e44:	00 
 8049e45:	8d 85 bc bf ff ff    	lea    -0x4044(%ebp),%eax
 8049e4b:	89 44 24 04          	mov    %eax,0x4(%esp)
 8049e4f:	8d 85 bc df ff ff    	lea    -0x2044(%ebp),%eax
 8049e55:	89 04 24             	mov    %eax,(%esp)
 8049e58:	e8 d1 f8 ff ff       	call   804972e <rio_readlineb>
 8049e5d:	85 c0                	test   %eax,%eax
 8049e5f:	7f 6f                	jg     8049ed0 <submitr+0x57a>
 8049e61:	8b 45 20             	mov    0x20(%ebp),%eax
 8049e64:	c7 00 45 72 72 6f    	movl   $0x6f727245,(%eax)
 8049e6a:	c7 40 04 72 3a 20 43 	movl   $0x43203a72,0x4(%eax)
 8049e71:	c7 40 08 6c 69 65 6e 	movl   $0x6e65696c,0x8(%eax)
 8049e78:	c7 40 0c 74 20 75 6e 	movl   $0x6e752074,0xc(%eax)
 8049e7f:	c7 40 10 61 62 6c 65 	movl   $0x656c6261,0x10(%eax)
 8049e86:	c7 40 14 20 74 6f 20 	movl   $0x206f7420,0x14(%eax)
 8049e8d:	c7 40 18 72 65 61 64 	movl   $0x64616572,0x18(%eax)
 8049e94:	c7 40 1c 20 68 65 61 	movl   $0x61656820,0x1c(%eax)
 8049e9b:	c7 40 20 64 65 72 73 	movl   $0x73726564,0x20(%eax)
 8049ea2:	c7 40 24 20 66 72 6f 	movl   $0x6f726620,0x24(%eax)
 8049ea9:	c7 40 28 6d 20 73 65 	movl   $0x6573206d,0x28(%eax)
 8049eb0:	c7 40 2c 72 76 65 72 	movl   $0x72657672,0x2c(%eax)
 8049eb7:	c6 40 30 00          	movb   $0x0,0x30(%eax)
 8049ebb:	8b 45 e4             	mov    -0x1c(%ebp),%eax
 8049ebe:	89 04 24             	mov    %eax,(%esp)
 8049ec1:	e8 aa ec ff ff       	call   8048b70 <close@plt>
 8049ec6:	b8 ff ff ff ff       	mov    $0xffffffff,%eax
 8049ecb:	e9 fb 00 00 00       	jmp    8049fcb <submitr+0x675>
 8049ed0:	c7 44 24 04 d9 a9 04 	movl   $0x804a9d9,0x4(%esp)
 8049ed7:	08 
 8049ed8:	8d 85 bc bf ff ff    	lea    -0x4044(%ebp),%eax
 8049ede:	89 04 24             	mov    %eax,(%esp)
 8049ee1:	e8 5a ea ff ff       	call   8048940 <strcmp@plt>
 8049ee6:	85 c0                	test   %eax,%eax
 8049ee8:	0f 85 4f ff ff ff    	jne    8049e3d <submitr+0x4e7>
 8049eee:	c7 44 24 08 00 20 00 	movl   $0x2000,0x8(%esp)
 8049ef5:	00 
 8049ef6:	8d 85 bc bf ff ff    	lea    -0x4044(%ebp),%eax
 8049efc:	89 44 24 04          	mov    %eax,0x4(%esp)
 8049f00:	8d 85 bc df ff ff    	lea    -0x2044(%ebp),%eax
 8049f06:	89 04 24             	mov    %eax,(%esp)
 8049f09:	e8 20 f8 ff ff       	call   804972e <rio_readlineb>
 8049f0e:	85 c0                	test   %eax,%eax
 8049f10:	7f 76                	jg     8049f88 <submitr+0x632>
 8049f12:	8b 45 20             	mov    0x20(%ebp),%eax
 8049f15:	c7 00 45 72 72 6f    	movl   $0x6f727245,(%eax)
 8049f1b:	c7 40 04 72 3a 20 43 	movl   $0x43203a72,0x4(%eax)
 8049f22:	c7 40 08 6c 69 65 6e 	movl   $0x6e65696c,0x8(%eax)
 8049f29:	c7 40 0c 74 20 75 6e 	movl   $0x6e752074,0xc(%eax)
 8049f30:	c7 40 10 61 62 6c 65 	movl   $0x656c6261,0x10(%eax)
 8049f37:	c7 40 14 20 74 6f 20 	movl   $0x206f7420,0x14(%eax)
 8049f3e:	c7 40 18 72 65 61 64 	movl   $0x64616572,0x18(%eax)
 8049f45:	c7 40 1c 20 73 74 61 	movl   $0x61747320,0x1c(%eax)
 8049f4c:	c7 40 20 74 75 73 20 	movl   $0x20737574,0x20(%eax)
 8049f53:	c7 40 24 6d 65 73 73 	movl   $0x7373656d,0x24(%eax)
 8049f5a:	c7 40 28 61 67 65 20 	movl   $0x20656761,0x28(%eax)
 8049f61:	c7 40 2c 66 72 6f 6d 	movl   $0x6d6f7266,0x2c(%eax)
 8049f68:	c7 40 30 20 73 65 72 	movl   $0x72657320,0x30(%eax)
 8049f6f:	c7 40 34 76 65 72 00 	movl   $0x726576,0x34(%eax)
 8049f76:	8b 45 e4             	mov    -0x1c(%ebp),%eax
 8049f79:	89 04 24             	mov    %eax,(%esp)
 8049f7c:	e8 ef eb ff ff       	call   8048b70 <close@plt>
 8049f81:	b8 ff ff ff ff       	mov    $0xffffffff,%eax
 8049f86:	eb 43                	jmp    8049fcb <submitr+0x675>
 8049f88:	8d 85 bc bf ff ff    	lea    -0x4044(%ebp),%eax
 8049f8e:	89 44 24 04          	mov    %eax,0x4(%esp)
 8049f92:	8b 45 20             	mov    0x20(%ebp),%eax
 8049f95:	89 04 24             	mov    %eax,(%esp)
 8049f98:	e8 73 ea ff ff       	call   8048a10 <strcpy@plt>
 8049f9d:	8b 45 e4             	mov    -0x1c(%ebp),%eax
 8049fa0:	89 04 24             	mov    %eax,(%esp)
 8049fa3:	e8 c8 eb ff ff       	call   8048b70 <close@plt>
 8049fa8:	c7 44 24 04 dc a9 04 	movl   $0x804a9dc,0x4(%esp)
 8049faf:	08 
 8049fb0:	8b 45 20             	mov    0x20(%ebp),%eax
 8049fb3:	89 04 24             	mov    %eax,(%esp)
 8049fb6:	e8 85 e9 ff ff       	call   8048940 <strcmp@plt>
 8049fbb:	85 c0                	test   %eax,%eax
 8049fbd:	75 07                	jne    8049fc6 <submitr+0x670>
 8049fbf:	b8 00 00 00 00       	mov    $0x0,%eax
 8049fc4:	eb 05                	jmp    8049fcb <submitr+0x675>
 8049fc6:	b8 ff ff ff ff       	mov    $0xffffffff,%eax
 8049fcb:	81 c4 5c a0 00 00    	add    $0xa05c,%esp
 8049fd1:	5b                   	pop    %ebx
 8049fd2:	5e                   	pop    %esi
 8049fd3:	5f                   	pop    %edi
 8049fd4:	5d                   	pop    %ebp
 8049fd5:	c3                   	ret    

08049fd6 <init_timeout>:
 8049fd6:	55                   	push   %ebp
 8049fd7:	89 e5                	mov    %esp,%ebp
 8049fd9:	83 ec 18             	sub    $0x18,%esp
 8049fdc:	83 7d 08 00          	cmpl   $0x0,0x8(%ebp)
 8049fe0:	75 02                	jne    8049fe4 <init_timeout+0xe>
 8049fe2:	eb 2c                	jmp    804a010 <init_timeout+0x3a>
 8049fe4:	83 7d 08 00          	cmpl   $0x0,0x8(%ebp)
 8049fe8:	79 07                	jns    8049ff1 <init_timeout+0x1b>
 8049fea:	c7 45 08 05 00 00 00 	movl   $0x5,0x8(%ebp)
 8049ff1:	c7 44 24 04 14 96 04 	movl   $0x8049614,0x4(%esp)
 8049ff8:	08 
 8049ff9:	c7 04 24 0e 00 00 00 	movl   $0xe,(%esp)
 804a000:	e8 ab e9 ff ff       	call   80489b0 <signal@plt>
 804a005:	8b 45 08             	mov    0x8(%ebp),%eax
 804a008:	89 04 24             	mov    %eax,(%esp)
 804a00b:	e8 b0 e9 ff ff       	call   80489c0 <alarm@plt>
 804a010:	c9                   	leave  
 804a011:	c3                   	ret    

0804a012 <init_driver>:
 804a012:	55                   	push   %ebp
 804a013:	89 e5                	mov    %esp,%ebp
 804a015:	83 ec 38             	sub    $0x38,%esp
 804a018:	c7 45 f4 df a9 04 08 	movl   $0x804a9df,-0xc(%ebp)
 804a01f:	c7 45 f0 26 47 00 00 	movl   $0x4726,-0x10(%ebp)
 804a026:	c7 44 24 04 01 00 00 	movl   $0x1,0x4(%esp)
 804a02d:	00 
 804a02e:	c7 04 24 0d 00 00 00 	movl   $0xd,(%esp)
 804a035:	e8 76 e9 ff ff       	call   80489b0 <signal@plt>
 804a03a:	c7 44 24 04 01 00 00 	movl   $0x1,0x4(%esp)
 804a041:	00 
 804a042:	c7 04 24 1d 00 00 00 	movl   $0x1d,(%esp)
 804a049:	e8 62 e9 ff ff       	call   80489b0 <signal@plt>
 804a04e:	c7 44 24 04 01 00 00 	movl   $0x1,0x4(%esp)
 804a055:	00 
 804a056:	c7 04 24 1d 00 00 00 	movl   $0x1d,(%esp)
 804a05d:	e8 4e e9 ff ff       	call   80489b0 <signal@plt>
 804a062:	c7 44 24 08 00 00 00 	movl   $0x0,0x8(%esp)
 804a069:	00 
 804a06a:	c7 44 24 04 01 00 00 	movl   $0x1,0x4(%esp)
 804a071:	00 
 804a072:	c7 04 24 02 00 00 00 	movl   $0x2,(%esp)
 804a079:	e8 b2 ea ff ff       	call   8048b30 <socket@plt>
 804a07e:	89 45 ec             	mov    %eax,-0x14(%ebp)
 804a081:	83 7d ec 00          	cmpl   $0x0,-0x14(%ebp)
 804a085:	79 51                	jns    804a0d8 <init_driver+0xc6>
 804a087:	8b 45 08             	mov    0x8(%ebp),%eax
 804a08a:	c7 00 45 72 72 6f    	movl   $0x6f727245,(%eax)
 804a090:	c7 40 04 72 3a 20 43 	movl   $0x43203a72,0x4(%eax)
 804a097:	c7 40 08 6c 69 65 6e 	movl   $0x6e65696c,0x8(%eax)
 804a09e:	c7 40 0c 74 20 75 6e 	movl   $0x6e752074,0xc(%eax)
 804a0a5:	c7 40 10 61 62 6c 65 	movl   $0x656c6261,0x10(%eax)
 804a0ac:	c7 40 14 20 74 6f 20 	movl   $0x206f7420,0x14(%eax)
 804a0b3:	c7 40 18 63 72 65 61 	movl   $0x61657263,0x18(%eax)
 804a0ba:	c7 40 1c 74 65 20 73 	movl   $0x73206574,0x1c(%eax)
 804a0c1:	c7 40 20 6f 63 6b 65 	movl   $0x656b636f,0x20(%eax)
 804a0c8:	66 c7 40 24 74 00    	movw   $0x74,0x24(%eax)
 804a0ce:	b8 ff ff ff ff       	mov    $0xffffffff,%eax
 804a0d3:	e9 01 01 00 00       	jmp    804a1d9 <init_driver+0x1c7>
 804a0d8:	8b 45 f4             	mov    -0xc(%ebp),%eax
 804a0db:	89 04 24             	mov    %eax,(%esp)
 804a0de:	e8 6d ea ff ff       	call   8048b50 <gethostbyname@plt>
 804a0e3:	89 45 e8             	mov    %eax,-0x18(%ebp)
 804a0e6:	83 7d e8 00          	cmpl   $0x0,-0x18(%ebp)
 804a0ea:	75 2f                	jne    804a11b <init_driver+0x109>
 804a0ec:	8b 45 f4             	mov    -0xc(%ebp),%eax
 804a0ef:	89 44 24 08          	mov    %eax,0x8(%esp)
 804a0f3:	c7 44 24 04 b8 a8 04 	movl   $0x804a8b8,0x4(%esp)
 804a0fa:	08 
 804a0fb:	8b 45 08             	mov    0x8(%ebp),%eax
 804a0fe:	89 04 24             	mov    %eax,(%esp)
 804a101:	e8 1a ea ff ff       	call   8048b20 <sprintf@plt>
 804a106:	8b 45 ec             	mov    -0x14(%ebp),%eax
 804a109:	89 04 24             	mov    %eax,(%esp)
 804a10c:	e8 5f ea ff ff       	call   8048b70 <close@plt>
 804a111:	b8 ff ff ff ff       	mov    $0xffffffff,%eax
 804a116:	e9 be 00 00 00       	jmp    804a1d9 <init_driver+0x1c7>
 804a11b:	c7 44 24 04 10 00 00 	movl   $0x10,0x4(%esp)
 804a122:	00 
 804a123:	8d 45 d8             	lea    -0x28(%ebp),%eax
 804a126:	89 04 24             	mov    %eax,(%esp)
 804a129:	e8 72 e8 ff ff       	call   80489a0 <bzero@plt>
 804a12e:	66 c7 45 d8 02 00    	movw   $0x2,-0x28(%ebp)
 804a134:	8b 45 e8             	mov    -0x18(%ebp),%eax
 804a137:	8b 40 0c             	mov    0xc(%eax),%eax
 804a13a:	89 c2                	mov    %eax,%edx
 804a13c:	8b 45 e8             	mov    -0x18(%ebp),%eax
 804a13f:	8b 40 10             	mov    0x10(%eax),%eax
 804a142:	8b 00                	mov    (%eax),%eax
 804a144:	89 54 24 08          	mov    %edx,0x8(%esp)
 804a148:	8d 55 d8             	lea    -0x28(%ebp),%edx
 804a14b:	83 c2 04             	add    $0x4,%edx
 804a14e:	89 54 24 04          	mov    %edx,0x4(%esp)
 804a152:	89 04 24             	mov    %eax,(%esp)
 804a155:	e8 a6 e8 ff ff       	call   8048a00 <bcopy@plt>
 804a15a:	8b 45 f0             	mov    -0x10(%ebp),%eax
 804a15d:	0f b7 c0             	movzwl %ax,%eax
 804a160:	89 04 24             	mov    %eax,(%esp)
 804a163:	e8 78 e8 ff ff       	call   80489e0 <htons@plt>
 804a168:	66 89 45 da          	mov    %ax,-0x26(%ebp)
 804a16c:	c7 44 24 08 10 00 00 	movl   $0x10,0x8(%esp)
 804a173:	00 
 804a174:	8d 45 d8             	lea    -0x28(%ebp),%eax
 804a177:	89 44 24 04          	mov    %eax,0x4(%esp)
 804a17b:	8b 45 ec             	mov    -0x14(%ebp),%eax
 804a17e:	89 04 24             	mov    %eax,(%esp)
 804a181:	e8 da e9 ff ff       	call   8048b60 <connect@plt>
 804a186:	85 c0                	test   %eax,%eax
 804a188:	79 33                	jns    804a1bd <init_driver+0x1ab>
 804a18a:	8b 45 f0             	mov    -0x10(%ebp),%eax
 804a18d:	89 44 24 0c          	mov    %eax,0xc(%esp)
 804a191:	8b 45 f4             	mov    -0xc(%ebp),%eax
 804a194:	89 44 24 08          	mov    %eax,0x8(%esp)
 804a198:	c7 44 24 04 f4 a9 04 	movl   $0x804a9f4,0x4(%esp)
 804a19f:	08 
 804a1a0:	8b 45 08             	mov    0x8(%ebp),%eax
 804a1a3:	89 04 24             	mov    %eax,(%esp)
 804a1a6:	e8 75 e9 ff ff       	call   8048b20 <sprintf@plt>
 804a1ab:	8b 45 ec             	mov    -0x14(%ebp),%eax
 804a1ae:	89 04 24             	mov    %eax,(%esp)
 804a1b1:	e8 ba e9 ff ff       	call   8048b70 <close@plt>
 804a1b6:	b8 ff ff ff ff       	mov    $0xffffffff,%eax
 804a1bb:	eb 1c                	jmp    804a1d9 <init_driver+0x1c7>
 804a1bd:	8b 45 ec             	mov    -0x14(%ebp),%eax
 804a1c0:	89 04 24             	mov    %eax,(%esp)
 804a1c3:	e8 a8 e9 ff ff       	call   8048b70 <close@plt>
 804a1c8:	8b 45 08             	mov    0x8(%ebp),%eax
 804a1cb:	66 c7 00 4f 4b       	movw   $0x4b4f,(%eax)
 804a1d0:	c6 40 02 00          	movb   $0x0,0x2(%eax)
 804a1d4:	b8 00 00 00 00       	mov    $0x0,%eax
 804a1d9:	c9                   	leave  
 804a1da:	c3                   	ret    

0804a1db <driver_post>:
 804a1db:	55                   	push   %ebp
 804a1dc:	89 e5                	mov    %esp,%ebp
 804a1de:	83 ec 38             	sub    $0x38,%esp
 804a1e1:	83 7d 10 00          	cmpl   $0x0,0x10(%ebp)
 804a1e5:	74 26                	je     804a20d <driver_post+0x32>
 804a1e7:	8b 45 0c             	mov    0xc(%ebp),%eax
 804a1ea:	89 44 24 04          	mov    %eax,0x4(%esp)
 804a1ee:	c7 04 24 1d aa 04 08 	movl   $0x804aa1d,(%esp)
 804a1f5:	e8 76 e7 ff ff       	call   8048970 <printf@plt>
 804a1fa:	8b 45 14             	mov    0x14(%ebp),%eax
 804a1fd:	66 c7 00 4f 4b       	movw   $0x4b4f,(%eax)
 804a202:	c6 40 02 00          	movb   $0x0,0x2(%eax)
 804a206:	b8 00 00 00 00       	mov    $0x0,%eax
 804a20b:	eb 62                	jmp    804a26f <driver_post+0x94>
 804a20d:	83 7d 08 00          	cmpl   $0x0,0x8(%ebp)
 804a211:	74 4b                	je     804a25e <driver_post+0x83>
 804a213:	8b 45 08             	mov    0x8(%ebp),%eax
 804a216:	0f b6 00             	movzbl (%eax),%eax
 804a219:	84 c0                	test   %al,%al
 804a21b:	74 41                	je     804a25e <driver_post+0x83>
 804a21d:	8b 45 14             	mov    0x14(%ebp),%eax
 804a220:	89 44 24 18          	mov    %eax,0x18(%esp)
 804a224:	8b 45 0c             	mov    0xc(%ebp),%eax
 804a227:	89 44 24 14          	mov    %eax,0x14(%esp)
 804a22b:	c7 44 24 10 34 aa 04 	movl   $0x804aa34,0x10(%esp)
 804a232:	08 
 804a233:	8b 45 08             	mov    0x8(%ebp),%eax
 804a236:	89 44 24 0c          	mov    %eax,0xc(%esp)
 804a23a:	c7 44 24 08 3b aa 04 	movl   $0x804aa3b,0x8(%esp)
 804a241:	08 
 804a242:	c7 44 24 04 26 47 00 	movl   $0x4726,0x4(%esp)
 804a249:	00 
 804a24a:	c7 04 24 df a9 04 08 	movl   $0x804a9df,(%esp)
 804a251:	e8 00 f7 ff ff       	call   8049956 <submitr>
 804a256:	89 45 f4             	mov    %eax,-0xc(%ebp)
 804a259:	8b 45 f4             	mov    -0xc(%ebp),%eax
 804a25c:	eb 11                	jmp    804a26f <driver_post+0x94>
 804a25e:	8b 45 14             	mov    0x14(%ebp),%eax
 804a261:	66 c7 00 4f 4b       	movw   $0x4b4f,(%eax)
 804a266:	c6 40 02 00          	movb   $0x0,0x2(%eax)
 804a26a:	b8 00 00 00 00       	mov    $0x0,%eax
 804a26f:	c9                   	leave  
 804a270:	c3                   	ret    
 804a271:	66 90                	xchg   %ax,%ax
 804a273:	90                   	nop

0804a274 <hash>:
 804a274:	55                   	push   %ebp
 804a275:	89 e5                	mov    %esp,%ebp
 804a277:	83 ec 10             	sub    $0x10,%esp
 804a27a:	c7 45 fc 00 00 00 00 	movl   $0x0,-0x4(%ebp)
 804a281:	eb 1a                	jmp    804a29d <hash+0x29>
 804a283:	8b 45 fc             	mov    -0x4(%ebp),%eax
 804a286:	6b c8 67             	imul   $0x67,%eax,%ecx
 804a289:	8b 45 08             	mov    0x8(%ebp),%eax
 804a28c:	8d 50 01             	lea    0x1(%eax),%edx
 804a28f:	89 55 08             	mov    %edx,0x8(%ebp)
 804a292:	0f b6 00             	movzbl (%eax),%eax
 804a295:	0f be c0             	movsbl %al,%eax
 804a298:	01 c8                	add    %ecx,%eax
 804a29a:	89 45 fc             	mov    %eax,-0x4(%ebp)
 804a29d:	8b 45 08             	mov    0x8(%ebp),%eax
 804a2a0:	0f b6 00             	movzbl (%eax),%eax
 804a2a3:	84 c0                	test   %al,%al
 804a2a5:	75 dc                	jne    804a283 <hash+0xf>
 804a2a7:	8b 45 fc             	mov    -0x4(%ebp),%eax
 804a2aa:	c9                   	leave  
 804a2ab:	c3                   	ret    

0804a2ac <check>:
 804a2ac:	55                   	push   %ebp
 804a2ad:	89 e5                	mov    %esp,%ebp
 804a2af:	83 ec 10             	sub    $0x10,%esp
 804a2b2:	8b 45 08             	mov    0x8(%ebp),%eax
 804a2b5:	c1 e8 1c             	shr    $0x1c,%eax
 804a2b8:	85 c0                	test   %eax,%eax
 804a2ba:	75 07                	jne    804a2c3 <check+0x17>
 804a2bc:	b8 00 00 00 00       	mov    $0x0,%eax
 804a2c1:	eb 33                	jmp    804a2f6 <check+0x4a>
 804a2c3:	c7 45 fc 00 00 00 00 	movl   $0x0,-0x4(%ebp)
 804a2ca:	eb 1f                	jmp    804a2eb <check+0x3f>
 804a2cc:	8b 45 fc             	mov    -0x4(%ebp),%eax
 804a2cf:	8b 55 08             	mov    0x8(%ebp),%edx
 804a2d2:	89 c1                	mov    %eax,%ecx
 804a2d4:	d3 ea                	shr    %cl,%edx
 804a2d6:	89 d0                	mov    %edx,%eax
 804a2d8:	0f b6 c0             	movzbl %al,%eax
 804a2db:	83 f8 0a             	cmp    $0xa,%eax
 804a2de:	75 07                	jne    804a2e7 <check+0x3b>
 804a2e0:	b8 00 00 00 00       	mov    $0x0,%eax
 804a2e5:	eb 0f                	jmp    804a2f6 <check+0x4a>
 804a2e7:	83 45 fc 08          	addl   $0x8,-0x4(%ebp)
 804a2eb:	83 7d fc 1f          	cmpl   $0x1f,-0x4(%ebp)
 804a2ef:	7e db                	jle    804a2cc <check+0x20>
 804a2f1:	b8 01 00 00 00       	mov    $0x1,%eax
 804a2f6:	c9                   	leave  
 804a2f7:	c3                   	ret    

0804a2f8 <gencookie>:
 804a2f8:	55                   	push   %ebp
 804a2f9:	89 e5                	mov    %esp,%ebp
 804a2fb:	83 ec 28             	sub    $0x28,%esp
 804a2fe:	8b 45 08             	mov    0x8(%ebp),%eax
 804a301:	89 04 24             	mov    %eax,(%esp)
 804a304:	e8 6b ff ff ff       	call   804a274 <hash>
 804a309:	89 04 24             	mov    %eax,(%esp)
 804a30c:	e8 5f e7 ff ff       	call   8048a70 <srand@plt>
 804a311:	e8 ea e7 ff ff       	call   8048b00 <rand@plt>
 804a316:	89 45 f4             	mov    %eax,-0xc(%ebp)
 804a319:	8b 45 f4             	mov    -0xc(%ebp),%eax
 804a31c:	89 04 24             	mov    %eax,(%esp)
 804a31f:	e8 88 ff ff ff       	call   804a2ac <check>
 804a324:	85 c0                	test   %eax,%eax
 804a326:	74 e9                	je     804a311 <gencookie+0x19>
 804a328:	8b 45 f4             	mov    -0xc(%ebp),%eax
 804a32b:	c9                   	leave  
 804a32c:	c3                   	ret    
 804a32d:	66 90                	xchg   %ax,%ax
 804a32f:	90                   	nop

0804a330 <__libc_csu_init>:
 804a330:	55                   	push   %ebp
 804a331:	57                   	push   %edi
 804a332:	31 ff                	xor    %edi,%edi
 804a334:	56                   	push   %esi
 804a335:	53                   	push   %ebx
 804a336:	e8 85 e8 ff ff       	call   8048bc0 <__x86.get_pc_thunk.bx>
 804a33b:	81 c3 c5 2c 00 00    	add    $0x2cc5,%ebx
 804a341:	83 ec 1c             	sub    $0x1c,%esp
 804a344:	8b 6c 24 30          	mov    0x30(%esp),%ebp
 804a348:	8d b3 04 ff ff ff    	lea    -0xfc(%ebx),%esi
 804a34e:	e8 ad e5 ff ff       	call   8048900 <_init>
 804a353:	8d 83 00 ff ff ff    	lea    -0x100(%ebx),%eax
 804a359:	29 c6                	sub    %eax,%esi
 804a35b:	c1 fe 02             	sar    $0x2,%esi
 804a35e:	85 f6                	test   %esi,%esi
 804a360:	74 27                	je     804a389 <__libc_csu_init+0x59>
 804a362:	8d b6 00 00 00 00    	lea    0x0(%esi),%esi
 804a368:	8b 44 24 38          	mov    0x38(%esp),%eax
 804a36c:	89 2c 24             	mov    %ebp,(%esp)
 804a36f:	89 44 24 08          	mov    %eax,0x8(%esp)
 804a373:	8b 44 24 34          	mov    0x34(%esp),%eax
 804a377:	89 44 24 04          	mov    %eax,0x4(%esp)
 804a37b:	ff 94 bb 00 ff ff ff 	call   *-0x100(%ebx,%edi,4)
 804a382:	83 c7 01             	add    $0x1,%edi
 804a385:	39 f7                	cmp    %esi,%edi
 804a387:	75 df                	jne    804a368 <__libc_csu_init+0x38>
 804a389:	83 c4 1c             	add    $0x1c,%esp
 804a38c:	5b                   	pop    %ebx
 804a38d:	5e                   	pop    %esi
 804a38e:	5f                   	pop    %edi
 804a38f:	5d                   	pop    %ebp
 804a390:	c3                   	ret    
 804a391:	eb 0d                	jmp    804a3a0 <__libc_csu_fini>
 804a393:	90                   	nop
 804a394:	90                   	nop
 804a395:	90                   	nop
 804a396:	90                   	nop
 804a397:	90                   	nop
 804a398:	90                   	nop
 804a399:	90                   	nop
 804a39a:	90                   	nop
 804a39b:	90                   	nop
 804a39c:	90                   	nop
 804a39d:	90                   	nop
 804a39e:	90                   	nop
 804a39f:	90                   	nop

0804a3a0 <__libc_csu_fini>:
 804a3a0:	f3 c3                	repz ret 
 804a3a2:	66 90                	xchg   %ax,%ax

Disassembly of section .fini:

0804a3a4 <_fini>:
 804a3a4:	53                   	push   %ebx
 804a3a5:	83 ec 08             	sub    $0x8,%esp
 804a3a8:	e8 13 e8 ff ff       	call   8048bc0 <__x86.get_pc_thunk.bx>
 804a3ad:	81 c3 53 2c 00 00    	add    $0x2c53,%ebx
 804a3b3:	83 c4 08             	add    $0x8,%esp
 804a3b6:	5b                   	pop    %ebx
 804a3b7:	c3                   	ret    
